(lp0
S'Sub_Dis_Head_Quar_Dis_in_km'
p1
aS'Dis_Head_Quar_Dis_in_km'
p2
aS'Near_Stat_Tow_Dis_in_km'
p3
aS'Near_Stat_Tow_wit_th_Stat_UT_Dis_in_km'
p4
aS'Stat_Tow_Out_th_Stat_UT_dis_if_near_on_is_not_wit_th_Stat_UT_Dis_in_km'
p5
aS'Tot_Geog_Ar_in_Hec'
p6
aS'Tot_Hous'
p7
aS'Tot_Pop_of_Vil'
p8
aS'Tot_Mal_Pop_of_Vil'
p9
aS'Tot_Fem_Pop_of_Vil'
p10
aS'Tot_Sched_Cas_Pop_of_Vil'
p11
aS'Tot_Sched_Cas_Mal_Pop_of_Vil'
p12
aS'Tot_Sched_Cas_Fem_Pop_of_Vil'
p13
aS'Tot_Sched_Trib_Pop_of_Vil'
p14
aS'Tot_Sched_Trib_Mal_Pop_of_Vil'
p15
aS'Tot_Sched_Trib_Fem_Pop_of_Vil'
p16
aS'Gov_Pr_Prim_School_Nur_LK_UK_Num'
p17
aS'Priv_Pr_Prim_School_Nur_LK_UK_Num'
p18
aS'Gov_Prim_School_Num'
p19
aS'Priv_Prim_School_Num'
p20
aS'Gov_Mid_School_Num'
p21
aS'Priv_Mid_School_Num'
p22
aS'Gov_Sec_School_Num'
p23
aS'Priv_Sec_School_Num'
p24
aS'Gov_Sen_Sec_School_Num'
p25
aS'Priv_Sen_Sec_School_Num'
p26
aS'Gov_Ar_an_Scien_Deg_Col_Num'
p27
aS'Priv_Ar_an_Scien_Deg_Col_Num'
p28
aS'Gov_Engin_Col_Num'
p29
aS'Priv_Engin_Col_Num'
p30
aS'Gov_Med_Col_Num'
p31
aS'Priv_Med_Col_Num'
p32
aS'Gov_Man_Instit_Num'
p33
aS'Priv_Man_Instit_Num'
p34
aS'Gov_Pol_Num'
p35
aS'Priv_Pol_Num'
p36
aS'Gov_Voc_Train_School_IT_Num'
p37
aS'Priv_Voc_Train_School_IT_Num'
p38
aS'Gov_Non_For_Train_Cen_Num'
p39
aS'Priv_Non_For_Train_Cen_Num'
p40
aS'Gov_School_For_Dis_Num'
p41
aS'Priv_School_For_Dis_Num'
p42
aS'Gov_Other_Num'
p43
aS'Priv_Other_Num'
p44
aS'Com_Heal_Cen_Num'
p45
aS'Com_Heal_Cen_Doc_Tot_Stren_Num'
p46
aS'Com_Heal_Cen_Doc_In_Pos_Num'
p47
aS'Com_Heal_Cen_Par_Med_Staf_Tot_Stren_Num'
p48
aS'Com_Heal_Cen_Par_Med_Staf_In_Pos_Num'
p49
aS'Prim_Heal_Cen_Num'
p50
aS'Prim_Heal_Cen_Doc_Tot_Stren_Num'
p51
aS'Prim_Heal_Cen_Doc_In_Pos_Num'
p52
aS'Prim_Heal_Cen_Par_Med_Staf_Tot_Stren_Num'
p53
aS'Prim_Heal_Cen_Par_Med_Staf_In_Pos_Num'
p54
aS'Prim_Heal_Sub_Cen_Num'
p55
aS'Prim_Heal_Sub_Cen_Doc_Tot_Stren_Num'
p56
aS'Prim_Heal_Sub_Cen_Doc_In_Pos_Num'
p57
aS'Prim_Heal_Sub_Cen_Par_Med_Staf_Tot_Stren_Num'
p58
aS'Prim_Heal_Sub_Cen_Par_Med_Staf_In_Pos_Num'
p59
aS'Mat_An_Chil_Wel_Cen_Num'
p60
aS'Mat_An_Chil_Wel_Cen_Doc_Tot_Stren_Num'
p61
aS'Mat_An_Chil_Wel_Cen_Doc_In_Pos_Num'
p62
aS'Mat_An_Chil_Wel_Cen_Par_Med_Staf_Tot_Stren_Num'
p63
aS'Mat_An_Chil_Wel_Cen_Par_Med_Staf_In_Pos_Num'
p64
aS'TB_Clin_Num'
p65
aS'TB_Clin_Doc_Tot_Stren_Num'
p66
aS'TB_Clin_Doc_In_Pos_Num'
p67
aS'TB_Clin_Par_Med_Par_Med_Staf_Tot_Stren_Num'
p68
aS'TB_Clin_Par_Med_Par_Med_Staf_In_Pos_Num'
p69
aS'Hos_Allop_Num'
p70
aS'Hos_Allop_Doc_Tot_Stren_Num'
p71
aS'Hos_Allop_Doc_In_Pos_Num'
p72
aS'Hos_Allop_Par_Med_Staf_Tot_Stren_Num'
p73
aS'Hos_Allop_Par_Med_Staf_In_Pos_Num'
p74
aS'Hos_Alter_Med_Num'
p75
aS'Hos_Alter_Med_Doc_Tot_Stren_Num'
p76
aS'Hos_Alter_Med_Doc_In_Pos_Num'
p77
aS'Hos_Alter_Med_Par_Med_Staf_Tot_Stren_Num'
p78
aS'Hos_Alter_Med_Par_Med_Staf_In_Pos_Num'
p79
aS'Dis_Num'
p80
aS'Dis_Doc_Tot_Stren_Num'
p81
aS'Dis_Doc_In_Pos_Num'
p82
aS'Dis_Par_Med_Staf_Tot_Stren_Num'
p83
aS'Dis_Par_Med_Staf_In_Pos_Num'
p84
aS'Vet_Hos_Num'
p85
aS'Vet_Hos_Doc_Tot_Stren_Num'
p86
aS'Vet_Hos_Doc_In_Pos_Num'
p87
aS'Vet_Hos_Par_Med_Staf_Tot_Stren_Num'
p88
aS'Vet_Hos_Par_Med_Staf_In_Pos_Num'
p89
aS'Mob_Heal_Clin_Num'
p90
aS'Mob_Heal_Clin_Doc_Tot_Stren_Num'
p91
aS'Mob_Heal_Clin_Doc_In_Pos_Num'
p92
aS'Mob_Heal_Clin_Par_Med_Staf_Tot_Stren_Num'
p93
aS'Mob_Heal_Clin_Par_Med_Staf_In_Pos_Num'
p94
aS'Fam_Wel_Cen_Num'
p95
aS'Fam_Wel_Cen_Doc_Tot_Stren_Num'
p96
aS'Fam_Wel_Cen_Doc_In_Pos_Num'
p97
aS'Fam_Wel_Cen_Par_Med_Staf_Tot_Stren_Num'
p98
aS'Fam_Wel_Cen_Par_Med_Staf_In_Pos_Num'
p99
aS'Non_Gov_Med_fac_Out_Pat_Num'
p100
aS'Non_Gov_Med_fac_In_An_Out_Pat_Num'
p101
aS'Non_Gov_Med_fac_Char_Num'
p102
aS'Non_Gov_Med_fac_Med_Prctit_wit_MB_Deg_Num'
p103
aS'Non_Gov_Med_fac_Med_Prctit_wit_other_Deg_Num'
p104
aS'Non_Gov_Med_fac_Med_Prac_wit_no_Deg_Num'
p105
aS'Non_Gov_Med_fac_Trad_Prac_an_Fait_Heal_Num'
p106
aS'Non_Gov_Med_fac_Med_Shop_Num'
p107
aS'Non_Gov_Med_fac_Other_Num'
p108
aS'Near_Fac_Dis_in_Km'
p109
aS'Pow_Sup_For_Dom_Us_Sum_April_Sep_per_day_in_Hour'
p110
aS'Pow_Sup_For_Dom_Us_Win_Oc_Mar_per_day_in_Hour'
p111
aS'Pow_Sup_For_Agric_Us_Sum_April_Sep_per_day_in_Hour'
p112
aS'Pow_Sup_For_Agric_Us_Win_Oc_Mar_per_day_in_Hour'
p113
aS'Pow_Sup_For_Com_Us_Sum_April_Sep_per_day_in_Hour'
p114
aS'Pow_Sup_For_Com_Us_Win_Oc_Mar_per_day_in_Hour'
p115
aS'Pow_Sup_For_Al_User_Sum_April_Sep_per_day_in_Hour'
p116
aS'Pow_Sup_For_Al_User_Win_Oc_Mar_per_day_in_Hour'
p117
aS'Ar_under_Non_Agric_Uses_in_Hec'
p118
aS'Bar_Un_cul_Lan_Ar_in_Hec'
p119
aS'Per_Pas_an_Other_Graz_Lan_Ar_in_Hec'
p120
aS'Lan_Under_Mis_Tr_Crop_et_Ar_in_Hec'
p121
aS'Cul_Was_Lan_Ar_in_Hec'
p122
aS'Fal_Lan_other_than_Cur_Fal_Ar_in_Hec'
p123
aS'Cur_Fal_Ar_in_Hec'
p124
aS'Net_Ar_Sow_in_Hec'
p125
aS'Tot_Unir_Lan_Ar_in_Hec'
p126
aS'Ar_Irrig_by_Sour_in_Hec'
p127
aS'Can_Ar_in_Hec'
p128
aS'Wel_Tub_Wel_Ar_in_Hec'
p129
aS'Tan_Lak_Ar_in_Hec'
p130
aS'Wat_Ar_in_Hec'
p131
aS'Other_Sour_spec_Ar_in_Hec'
p132
aS'Near_Tow_Dis_from_Vil_in_Km'
p133
a.