(lp0
S'Stat_Nam'
p1
aS'Dis_Nam'
p2
aS'Sub_Dis_Nam'
p3
aS'Vil_Nam'
p4
aS'CD_Bloc_Nam'
p5
aS'Gram_Pan_Nam'
p6
aS'Sub_Dis_Head_Quar_Nam'
p7
aS'Dis_Head_Quar_Nam'
p8
aS'Near_Stat_Tow_Nam'
p9
aS'Near_Stat_Tow_wit_th_Stat_UT_Nam'
p10
aS'Stat_Tow_Out_th_Stat_UT_if_near_on_is_not_wit_th_Stat_UT_Nam'
p11
aS'Gov_Pr_Prim_School_Nur_LK_UK_Stat'
p12
aS'Priv_Pr_Prim_School_Nur_LK_UK_Stat'
p13
aS'Near_Pr_Prim_School_Nur_LK_UK_Stat_Gov_1_Priv_2'
p14
aS'Near_Vil_Tow_Nam_hav_Pr_Prim_School'
p15
aS'Dist_Pr_Prim_School'
p16
aS'Gov_Prim_School_Stat'
p17
aS'Priv_Prim_School_Stat'
p18
aS'Near_Prim_School_Gov_1_Priv_2'
p19
aS'Near_Vil_Tow_Nam_hav_Prim_School'
p20
aS'Dist_Prim_School'
p21
aS'Gov_Mid_School_Stat'
p22
aS'Priv_Mid_School_Stat'
p23
aS'Near_Mid_School_Gov_1_Priv_2'
p24
aS'Near_Vil_Tow_Nam_hav_Mid_School'
p25
aS'Dist_Mid_School'
p26
aS'Gov_Sec_School_Stat'
p27
aS'Priv_Sec_School_Stat'
p28
aS'Near_Sec_School_Gov_1_Priv_2'
p29
aS'Near_Vil_Tow_Nam_hav_Sec_School'
p30
aS'Dist_Sec_School'
p31
aS'Gov_Sen_Sec_School_Stat'
p32
aS'Priv_Sen_Sec_School_Stat'
p33
aS'Near_Sen_Sec_School_Gov_1_Priv_2'
p34
aS'Near_Vil_Tow_Nam_hav_Sen_Sec_School'
p35
aS'Dist_Sen_Sec_School'
p36
aS'Gov_Ar_an_Scien_Deg_Col_Stat'
p37
aS'Priv_Ar_an_Scien_Deg_Col_Stat'
p38
aS'Near_Ar_an_Scien_Deg_Col_Gov_1_Priv_2'
p39
aS'Near_Vil_Tow_Nam_hav_Ar_an_Scien_Deg_Col'
p40
aS'Dist_Ar_an_Scien_Deg_Col'
p41
aS'Gov_Engin_Col_Stat'
p42
aS'Priv_Engin_Col_Stat'
p43
aS'Near_Priv_Engin_Col_Gov_1_Priv_2'
p44
aS'Near_Vil_Tow_Nam_hav_Priv_Engin_Col'
p45
aS'Dist_Priv_Engin_Col'
p46
aS'Gov_Med_Col_Stat'
p47
aS'Priv_Med_Col_Stat'
p48
aS'Near_Med_Col_Gov_1_Priv_2'
p49
aS'Near_Vil_Tow_Nam_hav_Med_Col'
p50
aS'Dist_Med_Col'
p51
aS'Gov_Man_Instit_Stat'
p52
aS'Priv_Man_Instit_Stat'
p53
aS'Near_Man_Instit_Gov_1_Priv_2'
p54
aS'Near_Vil_Tow_Nam_hav_Man_Instit'
p55
aS'Dist_Man_Instit'
p56
aS'Gov_Pol_Stat'
p57
aS'Priv_Pol_Stat'
p58
aS'Near_Pol_Gov_1_Priv_2'
p59
aS'Near_Vil_Tow_Nam_hav_Pol'
p60
aS'Dist_Pol'
p61
aS'Gov_Voc_Train_School_IT_Stat'
p62
aS'Priv_Voc_Train_School_IT_Stat'
p63
aS'Near_Voc_Train_School_IT_Gov_1_Priv_2'
p64
aS'Near_Vil_Tow_Nam_hav_Voc_Train_School_IT'
p65
aS'Dist_Voc_Train_School_IT'
p66
aS'Gov_Non_For_Train_Cen_Stat'
p67
aS'Priv_Non_For_Train_Cen_Stat'
p68
aS'Near_Non_For_Train_Cen_Gov_1_Priv_2'
p69
aS'Near_Vil_Tow_Nam_hav_Non_For_Train_Cen'
p70
aS'Dist_Non_For_Train_Cen'
p71
aS'Gov_School_For_Dis_Stat'
p72
aS'Priv_School_For_Dis_Stat'
p73
aS'Near_School_For_Dis_Gov_1_Priv_2'
p74
aS'Near_Vil_Tow_Nam_hav_School_For_Dis'
p75
aS'Dist_School_For_Dis'
p76
aS'Gov_Other_Stat'
p77
aS'Priv_Other_Stat'
p78
aS'Near_Other_Gov_1_Priv_2'
p79
aS'Near_Vil_Tow_Nam_hav_Other'
p80
aS'Dist_Other'
p81
aS'Dist_Com_Heal_Cen'
p82
aS'Dist_Prim_Heal_Cen'
p83
aS'Dist_Prim_Heal_Sub_Cen'
p84
aS'Dist_Mat_An_Chil_Wel_Cen'
p85
aS'Dist_TB_Clin'
p86
aS'Dist_Hos_Allop'
p87
aS'Dist_Hos_Alter_Med'
p88
aS'Dist_Dis'
p89
aS'Dist_Vet_Hos'
p90
aS'Dist_Mob_Heal_Clin'
p91
aS'Dist_Fam_Wel'
p92
aS'Tap_Wat_Treat_Stat'
p93
aS'Tap_Wat_Treat_Fun_Al_roun_th_year_Stat'
p94
aS'Tap_Wat_Treat_Fun_in_Sum_mon_April_Sep_Stat'
p95
aS'Tap_Wat_Untreat_Stat'
p96
aS'Tap_Wat_Untreat_Fun_Al_roun_th_year_Stat'
p97
aS'Tap_Wat_Untreat_Fun_in_Sum_mon_April_Sep_Stat'
p98
aS'Cov_Wel_Stat'
p99
aS'Cov_Wel_Fun_Al_yr_Stat'
p100
aS'Cov_Wel_Fun_in_Sum_Stat'
p101
aS'Uncov_Wel_Stat'
p102
aS'Uncov_Wel_Fun_Al_roun_th_year_Stat'
p103
aS'Uncov_Wel_Fun_in_Sum_mon_April_Sep_Stat'
p104
aS'Han_Pum_Stat'
p105
aS'Han_Pum_Fun_Al_roun_th_year_Stat'
p106
aS'Han_Pum_Fun_in_Sum_mon_April_Sep_Stat'
p107
aS'Tub_Wel_Bor_Stat'
p108
aS'Tub_Wel_Bor_Fun_Al_roun_th_year_Stat'
p109
aS'Tub_Wel_Bor_Fun_in_Sum_mon_April_Sep_Stat'
p110
aS'Sprin_Stat'
p111
aS'Sprin_Fun_Al_roun_th_year_Stat'
p112
aS'Sprin_Fun_in_Sum_mon_April_Sep_Stat'
p113
aS'Riv_Can_Stat'
p114
aS'Riv_Can_Fun_Al_roun_th_year_Stat'
p115
aS'Riv_Can_Fun_in_Sum_mon_April_Sep_Stat'
p116
aS'Tan_Pon_Lak_Stat'
p117
aS'Tan_Pon_Lak_Fun_Al_roun_th_year_Stat'
p118
aS'Tan_Pon_Lak_Fun_in_Sum_mon_April_Sep_Stat'
p119
aS'Other_Stat'
p120
aS'Other_Fun_Al_roun_th_year_Stat'
p121
aS'Other_Fun_in_Sum_mon_April_Sep_Stat'
p122
aS'Clos_Drain_Stat'
p123
aS'Open_Drain_Stat'
p124
aS'No_Drain_Stat'
p125
aS'Open_Puc_Drain_Cov_wit_Til_Slab_Stat'
p126
aS'Open_Puc_Drain_Uncov_Stat'
p127
aS'Open_Kuc_Drain_Stat'
p128
aS'Whet_Drain_wat_is_dis_dir_in_wat_bod_or_to_sew_plan_For_Wat_Bod_1_Sew_Plan_2'
p129
aS'Is_th_Ar_Cov_under_Tot_San_Cam_TS_Stat'
p130
aS'Com_Toil_Com_includ_Bat_for_Gen_Pub_Stat'
p131
aS'Com_Toil_Com_exclud_Bat_for_Gen_Pub_Stat'
p132
aS'Rur_Prod_Cen_or_San_har_out_avail_near_th_vil_Stat'
p133
aS'Rur_Prod_mar_or_San_har_out_avail_near_th_vil_Stat'
p134
aS'Com_was_dis_system_after_hous_to_hous_col_Stat'
p135
aS'Com_Bio_gas_for_prod_use_Stat'
p136
aS'No_System_Gar_on_road_street_Stat'
p137
aS'Pos_Offic_Stat'
p138
aS'Dist_Pos_Offic'
p139
aS'Sub_Pos_Offic_Stat'
p140
aS'Dist_Sub_Pos_Offic'
p141
aS'Pos_An_Tel_Offic_Stat'
p142
aS'Dist_Pos_An_Tel_Offic'
p143
aS'Vil_Pin_Cod_Stat'
p144
aS'Dist_Pin_Cod'
p145
aS'PI_Cod'
p146
aS'Tel_lan_Stat'
p147
aS'Dist_Tel_lan'
p148
aS'Pub_Cal_Offic_Mob_PC_Stat'
p149
aS'Dist_Pub_Cal_Offic_Mob_PC'
p150
aS'Mob_Phon_Cov_Stat'
p151
aS'Dist_Mob_Phon_Cov'
p152
aS'Inter_Caf_Com_Ser_Cen_CS_Stat'
p153
aS'Dist_Inter_Caf_Com_Ser_Cen_CS'
p154
aS'Priv_Cour_Fac_Stat'
p155
aS'Dist_Priv_Cour_Fac'
p156
aS'Pub_Bus_Ser_Stat'
p157
aS'Dist_Pub_Bus_Ser'
p158
aS'Priv_Bus_Ser_Stat'
p159
aS'Dist_Priv_Bus_Ser'
p160
aS'Rail_Stn_Stat'
p161
aS'Dist_Rail_Stn'
p162
aS'Aut_Mod_Aut_Stat'
p163
aS'Dist_Aut_Mod_Aut'
p164
aS'Tax_Stat'
p165
aS'Dist_Tax'
p166
aS'Van_Stat'
p167
aS'Dist_Van'
p168
aS'Trac_Stat'
p169
aS'Dist_Trac'
p170
aS'Cy_pul_Ric_man_driv_Stat'
p171
aS'Dist_Cy_pul_Ric_man_driv'
p172
aS'Cy_pul_Ric_mac_driv_Stat'
p173
aS'Dist_Cy_pul_Ric_mac_driv'
p174
aS'Car_Driv_by_Anim_Stat'
p175
aS'Dist_Car_Driv_by_Anim'
p176
aS'Sea_Riv_Fer_Ser_Stat'
p177
aS'Dist_Sea_Riv_Fer_Ser'
p178
aS'Nat_Hig_Stat'
p179
aS'Dist_Nat_Hig'
p180
aS'Stat_Hig_Stat'
p181
aS'Dist_Stat_Hig'
p182
aS'Maj_Dis_Road_Stat'
p183
aS'Dist_Maj_Dis_Road'
p184
aS'Other_Dis_Road_Stat'
p185
aS'Dist_Other_Dis_Road'
p186
aS'Blac_Top_puc_Road_Stat'
p187
aS'Dist_Blac_Top_puc_Road'
p188
aS'Grav_kuc_Road_Stat'
p189
aS'Dist_Grav_kuc_Road'
p190
aS'Wat_Boun_Mac_Stat'
p191
aS'Dist_Wat_Boun_Mac'
p192
aS'Al_Weat_Road_Stat'
p193
aS'Dist_Al_Weat_Road'
p194
aS'Nav_Wat_Riv_Can_Stat'
p195
aS'Dist_Nav_Wat_Riv_Can'
p196
aS'Foot_Stat'
p197
aS'Dist_Foot'
p198
aS'ATM_Stat'
p199
aS'Com_Ban_Stat'
p200
aS'Dist_Com_Ban'
p201
aS'Coop_Ban_Stat'
p202
aS'Dist_Coop_Ban'
p203
aS'Agric_Cred_Soc_Stat'
p204
aS'Dist_Agric_Cred_Soc'
p205
aS'Sel_Hel_Group_SH_Stat'
p206
aS'Dist_Sel_Hel_Group_SH'
p207
aS'Pub_Dis_System_PD_Shop_Stat'
p208
aS'Dist_Pub_Dis_System_PD_Shop'
p209
aS'Man_Reg_Mar_Stat'
p210
aS'Dist_Man_Reg_Mar'
p211
aS'Week_Haat_Stat'
p212
aS'Dist_Week_Haat'
p213
aS'Agric_Mar_Soc_Stat'
p214
aS'Dist_Agric_Mar_Soc'
p215
aS'Nut_Cen_IC_Stat'
p216
aS'Dist_Nut_Cen_ICDS'
p217
aS'Nut_Cen_Angan_Cen_Stat'
p218
aS'Dist_Nut_Cen_Angan_Cen'
p219
aS'Nut_Cen_Other_Stat'
p220
aS'Dist_Nut_Cen_Other'
p221
aS'ASHA_Stat'
p222
aS'Dist_ASHA'
p223
aS'Com_Cen_TV_Stat'
p224
aS'Dist_Com_Cen_wit_wit_TV'
p225
aS'Spor_Fiel_Stat'
p226
aS'Dist_Spor_Fiel'
p227
aS'Spor_Club_Rec_Cen_Stat'
p228
aS'Dist_Spor_Club_Rec_Cen'
p229
aS'Cin_Vid_Hal_Stat'
p230
aS'Dist_Cin_Vid_Hal'
p231
aS'Pub_Lib_Stat'
p232
aS'Dist_Pub_Lib'
p233
aS'Pub_Read_Room_Stat'
p234
aS'Dist_Pub_Read_Room'
p235
aS'Dail_New_Sup_Stat'
p236
aS'Dist_Dail_New_Sup'
p237
aS'Assem_Pol_Stn_Stat'
p238
aS'Dist_Assem_Pol_Stn'
p239
aS'Bir_an_Deat_Reg_Offic_Stat'
p240
aS'Dist_Bir_an_Deat_Reg_Offic'
p241
aS'Pow_Sup_For_Dom_Us_Stat'
p242
aS'Pow_Sup_For_Agric_Us_Stat'
p243
aS'Pow_Sup_For_Com_Us_Stat'
p244
aS'Pow_Sup_For_Al_User_Stat'
p245
aS'Agric_Com_Fir'
p246
aS'Man_Com_Fir'
p247
aS'Han_Com_Fir'
p248
aS'Agric_Com_Sec'
p249
aS'Man_Com_Sec'
p250
aS'Han_Com_Sec'
p251
aS'Agric_Com_Thir'
p252
aS'Man_Com_Thir'
p253
aS'Han_Com_Thir'
p254
aS'For_Ar_in_Hec'
p255
aS'Near_Tow_Nam'
p256
a.