(lp0
S'Maj_Dis_Road_Stat'
p1
aS'Mat_An_Chil_Wel_Cen_Doc_In_Pos_Num'
p2
aS'Priv_Mid_School_Stat'
p3
aS'TB_Clin_Par_Med_Par_Med_Staf_In_Pos_Num'
p4
aS'Hos_Alter_Med_Num'
p5
aS'Near_Tow_Nam'
p6
aS'Dist_Priv_Cour_Fac'
p7
aS'Priv_Engin_Col_Stat'
p8
aS'Ref_Year'
p9
aS'Gov_School_For_Dis_Num'
p10
aS'Dist_Mob_Phon_Cov'
p11
aS'Vil_Nam'
p12
aS'Week_Haat_Stat'
p13
aS'Uncov_Wel_Stat'
p14
aS'Foot_Stat'
p15
aS'Priv_Man_Instit_Num'
p16
aS'Car_Driv_by_Anim_Stat'
p17
aS'Trac_Stat'
p18
aS'Gov_Ar_an_Scien_Deg_Col_Num'
p19
aS'Tan_Pon_Lak_Fun_Al_roun_th_year_Stat'
p20
aS'Pow_Sup_For_Dom_Us_Sum_April_Sep_per_day_in_Hour'
p21
aS'Priv_Non_For_Train_Cen_Stat'
p22
aS'Dist_Cin_Vid_Hal'
p23
aS'Near_Vil_Tow_Nam_hav_Other'
p24
aS'Agric_Cred_Soc_Stat'
p25
aS'CD_Bloc_Nam'
p26
aS'Hos_Alter_Med_Par_Med_Staf_Tot_Stren_Num'
p27
aS'Gov_Mid_School_Num'
p28
aS'Man_Com_Fir'
p29
aS'Dist_Pr_Prim_School'
p30
aS'Han_Com_Sec'
p31
aS'Prim_Heal_Cen_Par_Med_Staf_In_Pos_Num'
p32
aS'Prim_Heal_Cen_Num'
p33
aS'Uncov_Wel_Fun_Al_roun_th_year_Stat'
p34
aS'Dist_Prim_Heal_Cen'
p35
aS'Non_Gov_Med_fac_Med_Prctit_wit_MB_Deg_Num'
p36
aS'Pow_Sup_For_Dom_Us_Stat'
p37
aS'Dist_Stat_Hig'
p38
aS'Pub_Lib_Stat'
p39
aS'Pub_Bus_Ser_Stat'
p40
aS'Cur_Fal_Ar_in_Hec'
p41
aS'Priv_Pol_Stat'
p42
aS'Priv_Sec_School_Stat'
p43
aS'Tot_Sched_Cas_Pop_of_Vil'
p44
aS'Wel_Tub_Wel_Ar_in_Hec'
p45
aS'Pos_An_Tel_Offic_Stat'
p46
aS'Dist_Spor_Fiel'
p47
aS'Mob_Heal_Clin_Doc_Tot_Stren_Num'
p48
aS'Near_Ar_an_Scien_Deg_Col_Gov_1_Priv_2'
p49
aS'Other_Dis_Road_Stat'
p50
aS'Net_Ar_Sow_in_Hec'
p51
aS'Near_Vil_Tow_Nam_hav_School_For_Dis'
p52
aS'Nav_Wat_Riv_Can_Stat'
p53
aS'TB_Clin_Doc_In_Pos_Num'
p54
aS'Prim_Heal_Sub_Cen_Par_Med_Staf_Tot_Stren_Num'
p55
aS'Priv_Engin_Col_Num'
p56
aS'Near_Fac_Dis_in_Km'
p57
aS'Near_Stat_Tow_wit_th_Stat_UT_Dis_in_km'
p58
aS'Gov_Engin_Col_Stat'
p59
aS'Priv_Prim_School_Stat'
p60
aS'Dist_Bir_an_Deat_Reg_Offic'
p61
aS'Hos_Allop_Num'
p62
aS'Near_Vil_Tow_Nam_hav_Priv_Engin_Col'
p63
aS'Man_Com_Thir'
p64
aS'Cul_Was_Lan_Ar_in_Hec'
p65
aS'Man_Com_Sec'
p66
aS'Dist_Blac_Top_puc_Road'
p67
aS'Near_Med_Col_Gov_1_Priv_2'
p68
aS'Priv_Mid_School_Num'
p69
aS'Dist_Nut_Cen_ICDS'
p70
aS'Dist_Com_Ban'
p71
aS'Dis_Par_Med_Staf_In_Pos_Num'
p72
aS'Dist_Aut_Mod_Aut'
p73
aS'Dist_Cy_pul_Ric_man_driv'
p74
aS'Dist_Mob_Heal_Clin'
p75
aS'Whet_Drain_wat_is_dis_dir_in_wat_bod_or_to_sew_plan_For_Wat_Bod_1_Sew_Plan_2'
p76
aS'Blac_Top_puc_Road_Stat'
p77
aS'Near_School_For_Dis_Gov_1_Priv_2'
p78
aS'Dist_Hos_Alter_Med'
p79
aS'Stat_Tow_Out_th_Stat_UT_if_near_on_is_not_wit_th_Stat_UT_Nam'
p80
aS'Dist_Med_Col'
p81
aS'Mat_An_Chil_Wel_Cen_Par_Med_Staf_In_Pos_Num'
p82
aS'Ar_Irrig_by_Sour_in_Hec'
p83
aS'Dist_Coop_Ban'
p84
aS'Tot_Sched_Trib_Fem_Pop_of_Vil'
p85
aS'Gram_Pan_Nam'
p86
aS'Fam_Wel_Cen_Doc_In_Pos_Num'
p87
aS'Priv_Sen_Sec_School_Stat'
p88
aS'Tot_Geog_Ar_in_Hec'
p89
aS'Dist_Pol'
p90
aS'Bir_an_Deat_Reg_Offic_Stat'
p91
aS'Hos_Allop_Doc_Tot_Stren_Num'
p92
aS'Sea_Riv_Fer_Ser_Stat'
p93
aS'Gov_Sen_Sec_School_Stat'
p94
aS'Com_Heal_Cen_Doc_Tot_Stren_Num'
p95
aS'Tap_Wat_Untreat_Stat'
p96
aS'Pos_Offic_Stat'
p97
aS'Com_Ban_Stat'
p98
aS'Nat_Hig_Stat'
p99
aS'Fam_Wel_Cen_Num'
p100
aS'Priv_Med_Col_Stat'
p101
aS'Near_Vil_Tow_Nam_hav_Sec_School'
p102
aS'Dist_Hos_Allop'
p103
aS'Rur_Prod_mar_or_San_har_out_avail_near_th_vil_Stat'
p104
aS'Dist_Assem_Pol_Stn'
p105
aS'Near_Vil_Tow_Nam_hav_Prim_School'
p106
aS'Gov_Voc_Train_School_IT_Num'
p107
aS'Han_Pum_Fun_Al_roun_th_year_Stat'
p108
aS'Gov_Sec_School_Num'
p109
aS'Dist_Nut_Cen_Angan_Cen'
p110
aS'Com_Toil_Com_includ_Bat_for_Gen_Pub_Stat'
p111
aS'Gov_Sen_Sec_School_Num'
p112
aS'Gov_Ar_an_Scien_Deg_Col_Stat'
p113
aS'Sprin_Stat'
p114
aS'Dist_Pub_Read_Room'
p115
aS'Priv_Sec_School_Num'
p116
aS'Tap_Wat_Treat_Fun_Al_roun_th_year_Stat'
p117
aS'Dist_Priv_Bus_Ser'
p118
aS'Tan_Pon_Lak_Stat'
p119
aS'Dis_Doc_Tot_Stren_Num'
p120
aS'Tap_Wat_Untreat_Fun_Al_roun_th_year_Stat'
p121
aS'PI_Cod'
p122
aS'Com_Heal_Cen_Num'
p123
aS'Mob_Heal_Clin_Num'
p124
aS'Dist_Fam_Wel'
p125
aS'Tax_Stat'
p126
aS'Dis_Nam'
p127
aS'Dist_Inter_Caf_Com_Ser_Cen_CS'
p128
aS'Mob_Heal_Clin_Par_Med_Staf_Tot_Stren_Num'
p129
aS'Dist_Car_Driv_by_Anim'
p130
aS'Vet_Hos_Par_Med_Staf_Tot_Stren_Num'
p131
aS'Gov_Other_Num'
p132
aS'Tot_Sched_Cas_Fem_Pop_of_Vil'
p133
aS'Gov_School_For_Dis_Stat'
p134
aS'Near_Sen_Sec_School_Gov_1_Priv_2'
p135
aS'Riv_Can_Fun_in_Sum_mon_April_Sep_Stat'
p136
aS'Com_Heal_Cen_Doc_In_Pos_Num'
p137
aS''
p138
aS'Dist_Com_Heal_Cen'
p139
aS'Dist_Dail_New_Sup'
p140
aS'Non_Gov_Med_fac_Char_Num'
p141
aS'Pow_Sup_For_Al_User_Sum_April_Sep_per_day_in_Hour'
p142
aS'Gov_Other_Stat'
p143
aS'Priv_Pol_Num'
p144
aS'Dist_Tel_lan'
p145
aS'Vet_Hos_Num'
p146
aS'Dist_Dis'
p147
aS'Non_Gov_Med_fac_Other_Num'
p148
aS'Near_Pol_Gov_1_Priv_2'
p149
aS'Near_Stat_Tow_Nam'
p150
aS'Near_Vil_Tow_Nam_hav_Mid_School'
p151
aS'Gov_Pr_Prim_School_Nur_LK_UK_Num'
p152
aS'Near_Man_Instit_Gov_1_Priv_2'
p153
aS'Vil_Cod'
p154
aS'Other_Fun_Al_roun_th_year_Stat'
p155
aS'Non_Gov_Med_fac_Out_Pat_Num'
p156
aS'Pow_Sup_For_Al_User_Win_Oc_Mar_per_day_in_Hour'
p157
aS'Han_Com_Thir'
p158
aS'Dist_Com_Cen_wit_wit_TV'
p159
aS'Sub_Pos_Offic_Stat'
p160
aS'Pow_Sup_For_Agric_Us_Win_Oc_Mar_per_day_in_Hour'
p161
aS'Dist_Nut_Cen_Other'
p162
aS'Al_Weat_Road_Stat'
p163
aS'TB_Clin_Num'
p164
aS'Near_Priv_Engin_Col_Gov_1_Priv_2'
p165
aS'Dis_Num'
p166
aS'Dis_Par_Med_Staf_Tot_Stren_Num'
p167
aS'Near_Vil_Tow_Nam_hav_Ar_an_Scien_Deg_Col'
p168
aS'Hos_Alter_Med_Par_Med_Staf_In_Pos_Num'
p169
aS'Agric_Com_Fir'
p170
aS'Dist_Van'
p171
aS'Priv_Other_Stat'
p172
aS'Riv_Can_Fun_Al_roun_th_year_Stat'
p173
aS'Vet_Hos_Par_Med_Staf_In_Pos_Num'
p174
aS'Tan_Lak_Ar_in_Hec'
p175
aS'Sub_Dis_Cod'
p176
aS'Agric_Com_Thir'
p177
aS'Dist_Pub_Dis_System_PD_Shop'
p178
aS'Com_Heal_Cen_Par_Med_Staf_In_Pos_Num'
p179
aS'Tot_Fem_Pop_of_Vil'
p180
aS'Han_Pum_Stat'
p181
aS'Dist_Pin_Cod'
p182
aS'Nut_Cen_Angan_Cen_Stat'
p183
aS'Near_Stat_Tow_Dis_in_km'
p184
aS'Pow_Sup_For_Agric_Us_Stat'
p185
aS'Can_Ar_in_Hec'
p186
aS'No_Drain_Stat'
p187
aS'Pub_Read_Room_Stat'
p188
aS'Tub_Wel_Bor_Fun_in_Sum_mon_April_Sep_Stat'
p189
aS'For_Ar_in_Hec'
p190
aS'Priv_Pr_Prim_School_Nur_LK_UK_Num'
p191
aS'Bar_Un_cul_Lan_Ar_in_Hec'
p192
aS'Mat_An_Chil_Wel_Cen_Doc_Tot_Stren_Num'
p193
aS'Lan_Under_Mis_Tr_Crop_et_Ar_in_Hec'
p194
aS'Tub_Wel_Bor_Stat'
p195
aS'Gov_Prim_School_Stat'
p196
aS'Com_Toil_Com_exclud_Bat_for_Gen_Pub_Stat'
p197
aS'Gov_Voc_Train_School_IT_Stat'
p198
aS'Priv_Bus_Ser_Stat'
p199
aS'Dist_School_For_Dis'
p200
aS'Near_Sec_School_Gov_1_Priv_2'
p201
aS'Dist_Rail_Stn'
p202
aS'Prim_Heal_Sub_Cen_Doc_Tot_Stren_Num'
p203
aS'Sub_Dis_Head_Quar_Dis_in_km'
p204
aS'Com_was_dis_system_after_hous_to_hous_col_Stat'
p205
aS'Non_Gov_Med_fac_In_An_Out_Pat_Num'
p206
aS'Open_Drain_Stat'
p207
aS'Pow_Sup_For_Dom_Us_Win_Oc_Mar_per_day_in_Hour'
p208
aS'ASHA_Stat'
p209
aS'Stat_Tow_Out_th_Stat_UT_dis_if_near_on_is_not_wit_th_Stat_UT_Dis_in_km'
p210
aS'Dist_Week_Haat'
p211
aS'Pub_Cal_Offic_Mob_PC_Stat'
p212
aS'Priv_Cour_Fac_Stat'
p213
aS'Coop_Ban_Stat'
p214
aS'Tap_Wat_Treat_Fun_in_Sum_mon_April_Sep_Stat'
p215
aS'Cov_Wel_Stat'
p216
aS'Gov_Prim_School_Num'
p217
aS'Dist_Cy_pul_Ric_mac_driv'
p218
aS'Gov_Sec_School_Stat'
p219
aS'Open_Puc_Drain_Uncov_Stat'
p220
aS'Mob_Phon_Cov_Stat'
p221
aS'Sprin_Fun_Al_roun_th_year_Stat'
p222
aS'Cin_Vid_Hal_Stat'
p223
aS'Tot_Sched_Trib_Mal_Pop_of_Vil'
p224
aS'Near_Voc_Train_School_IT_Gov_1_Priv_2'
p225
aS'Dist_Pos_Offic'
p226
aS'Fam_Wel_Cen_Par_Med_Staf_Tot_Stren_Num'
p227
aS'Gov_Med_Col_Num'
p228
aS'Aut_Mod_Aut_Stat'
p229
aS'Tot_Unir_Lan_Ar_in_Hec'
p230
aS'Rur_Prod_Cen_or_San_har_out_avail_near_th_vil_Stat'
p231
aS'Tot_Pop_of_Vil'
p232
aS'Gov_Med_Col_Stat'
p233
aS'Pow_Sup_For_Com_Us_Stat'
p234
aS'Near_Vil_Tow_Nam_hav_Pr_Prim_School'
p235
aS'Dist_Mid_School'
p236
aS'Dist_Sea_Riv_Fer_Ser'
p237
aS'Dist_Pub_Bus_Ser'
p238
aS'Dist_Al_Weat_Road'
p239
aS'Dist_Mat_An_Chil_Wel_Cen'
p240
aS'Sub_Dis_Head_Quar_Nam'
p241
aS'Wat_Ar_in_Hec'
p242
aS'Tel_lan_Stat'
p243
aS'Wat_Boun_Mac_Stat'
p244
aS'Dist_Sub_Pos_Offic'
p245
aS'Near_Other_Gov_1_Priv_2'
p246
aS'Dist_Sec_School'
p247
aS'Non_Gov_Med_fac_Med_Prctit_wit_other_Deg_Num'
p248
aS'Prim_Heal_Cen_Par_Med_Staf_Tot_Stren_Num'
p249
aS'Sub_Dis_Nam'
p250
aS'Han_Pum_Fun_in_Sum_mon_April_Sep_Stat'
p251
aS'Mat_An_Chil_Wel_Cen_Par_Med_Staf_Tot_Stren_Num'
p252
aS'Other_Sour_spec_Ar_in_Hec'
p253
aS'TB_Clin_Par_Med_Par_Med_Staf_Tot_Stren_Num'
p254
aS'Vet_Hos_Doc_Tot_Stren_Num'
p255
aS'Dist_Other_Dis_Road'
p256
aS'Dist_Agric_Mar_Soc'
p257
aS'Near_Prim_School_Gov_1_Priv_2'
p258
aS'Agric_Mar_Soc_Stat'
p259
aS'Grav_kuc_Road_Stat'
p260
aS'Priv_Other_Num'
p261
aS'Com_Bio_gas_for_prod_use_Stat'
p262
aS'Priv_Voc_Train_School_IT_Stat'
p263
aS'Hos_Allop_Doc_In_Pos_Num'
p264
aS'Mob_Heal_Clin_Doc_In_Pos_Num'
p265
aS'Assem_Pol_Stn_Stat'
p266
aS'Dist_Tax'
p267
aS'Gov_Non_For_Train_Cen_Num'
p268
aS'Prim_Heal_Sub_Cen_Num'
p269
aS'Dist_ASHA'
p270
aS'Fam_Wel_Cen_Doc_Tot_Stren_Num'
p271
aS'Inter_Caf_Com_Ser_Cen_CS_Stat'
p272
aS'Priv_Prim_School_Num'
p273
aS'Gov_Pol_Stat'
p274
aS'Com_Cen_TV_Stat'
p275
aS'Non_Gov_Med_fac_Trad_Prac_an_Fait_Heal_Num'
p276
aS'Dail_New_Sup_Stat'
p277
aS'Mob_Heal_Clin_Par_Med_Staf_In_Pos_Num'
p278
aS'Rail_Stn_Stat'
p279
aS'Near_Pr_Prim_School_Nur_LK_UK_Stat_Gov_1_Priv_2'
p280
ag138
aS'Near_Vil_Tow_Nam_hav_Pol'
p281
aS'Dist_Sel_Hel_Group_SH'
p282
aS'Ar_under_Non_Agric_Uses_in_Hec'
p283
aS'Fam_Wel_Cen_Par_Med_Staf_In_Pos_Num'
p284
aS'Prim_Heal_Cen_Doc_Tot_Stren_Num'
p285
aS'Dist_Vet_Hos'
p286
aS'Prim_Heal_Sub_Cen_Doc_In_Pos_Num'
p287
aS'Dis_Head_Quar_Dis_in_km'
p288
aS'Dist_Pub_Lib'
p289
aS'Near_Non_For_Train_Cen_Gov_1_Priv_2'
p290
aS'Gov_Mid_School_Stat'
p291
aS'Hos_Allop_Par_Med_Staf_Tot_Stren_Num'
p292
aS'Dist_Pos_An_Tel_Offic'
p293
aS'Dist_Voc_Train_School_IT'
p294
aS'Open_Puc_Drain_Cov_wit_Til_Slab_Stat'
p295
aS'Open_Kuc_Drain_Stat'
p296
aS'Gov_Pr_Prim_School_Nur_LK_UK_Stat'
p297
aS'Is_th_Ar_Cov_under_Tot_San_Cam_TS_Stat'
p298
aS'Near_Mid_School_Gov_1_Priv_2'
p299
aS'Vet_Hos_Doc_In_Pos_Num'
p300
aS'Man_Reg_Mar_Stat'
p301
aS'Uncov_Wel_Fun_in_Sum_mon_April_Sep_Stat'
p302
aS'Pow_Sup_For_Com_Us_Sum_April_Sep_per_day_in_Hour'
p303
aS'Tan_Pon_Lak_Fun_in_Sum_mon_April_Sep_Stat'
p304
aS'Dist_Pub_Cal_Offic_Mob_PC'
p305
aS'TB_Clin_Doc_Tot_Stren_Num'
p306
aS'Dis_Doc_In_Pos_Num'
p307
aS'Priv_School_For_Dis_Stat'
p308
aS'Cov_Wel_Fun_in_Sum_Stat'
p309
aS'Dist_Other'
p310
aS'Pow_Sup_For_Agric_Us_Sum_April_Sep_per_day_in_Hour'
p311
aS'Priv_Non_For_Train_Cen_Num'
p312
aS'Spor_Club_Rec_Cen_Stat'
p313
aS'Cov_Wel_Fun_Al_yr_Stat'
p314
aS'Pow_Sup_For_Com_Us_Win_Oc_Mar_per_day_in_Hour'
p315
aS'Han_Com_Fir'
p316
aS'Non_Gov_Med_fac_Med_Prac_wit_no_Deg_Num'
p317
aS'Gov_Engin_Col_Num'
p318
aS'Dist_Man_Instit'
p319
aS'Tot_Sched_Cas_Mal_Pop_of_Vil'
p320
aS'Near_Vil_Tow_Nam_hav_Sen_Sec_School'
p321
aS'Near_Vil_Tow_Nam_hav_Non_For_Train_Cen'
p322
aS'Tot_Hous'
p323
aS'Stat_Cod'
p324
aS'Dis_Head_Quar_Nam'
p325
aS'Dist_Priv_Engin_Col'
p326
aS'Near_Vil_Tow_Nam_hav_Man_Instit'
p327
aS'Riv_Can_Stat'
p328
aS'Spor_Fiel_Stat'
p329
aS'Dist_TB_Clin'
p330
aS'Dist_Maj_Dis_Road'
p331
aS'Dist_Spor_Club_Rec_Cen'
p332
aS'Tap_Wat_Treat_Stat'
p333
aS'Fal_Lan_other_than_Cur_Fal_Ar_in_Hec'
p334
aS'Gov_Non_For_Train_Cen_Stat'
p335
aS'Tap_Wat_Untreat_Fun_in_Sum_mon_April_Sep_Stat'
p336
aS'Dist_Trac'
p337
aS'Vil_Pin_Cod_Stat'
p338
aS'Stat_Nam'
p339
aS'Dist_Sen_Sec_School'
p340
aS'Cy_pul_Ric_man_driv_Stat'
p341
aS'Gram_Pan_Cod'
p342
aS'Nut_Cen_Other_Stat'
p343
aS'Stat_Hig_Stat'
p344
aS'Near_Tow_Dis_from_Vil_in_Km'
p345
aS'Cy_pul_Ric_mac_driv_Stat'
p346
aS'Sprin_Fun_in_Sum_mon_April_Sep_Stat'
p347
aS'Hos_Alter_Med_Doc_In_Pos_Num'
p348
aS'Dist_Nat_Hig'
p349
aS'Com_Heal_Cen_Par_Med_Staf_Tot_Stren_Num'
p350
aS'Other_Stat'
p351
aS'Tot_Mal_Pop_of_Vil'
p352
aS'Near_Stat_Tow_wit_th_Stat_UT_Nam'
p353
aS'Dist_Prim_Heal_Sub_Cen'
p354
aS'Priv_School_For_Dis_Num'
p355
aS'Priv_Sen_Sec_School_Num'
p356
aS'Agric_Com_Sec'
p357
aS'Dist_Non_For_Train_Cen'
p358
aS'Van_Stat'
p359
aS'Near_Vil_Tow_Nam_hav_Med_Col'
p360
aS'Tub_Wel_Bor_Fun_Al_roun_th_year_Stat'
p361
aS'Prim_Heal_Cen_Doc_In_Pos_Num'
p362
aS'Priv_Pr_Prim_School_Nur_LK_UK_Stat'
p363
aS'Dist_Prim_School'
p364
aS'Priv_Man_Instit_Stat'
p365
aS'Dist_Agric_Cred_Soc'
p366
aS'Other_Fun_in_Sum_mon_April_Sep_Stat'
p367
aS'Prim_Heal_Sub_Cen_Par_Med_Staf_In_Pos_Num'
p368
aS'Priv_Voc_Train_School_IT_Num'
p369
aS'Dist_Man_Reg_Mar'
p370
aS'Priv_Ar_an_Scien_Deg_Col_Stat'
p371
aS'Clos_Drain_Stat'
p372
aS'Tot_Sched_Trib_Pop_of_Vil'
p373
aS'Dist_Nav_Wat_Riv_Can'
p374
aS'Gov_Pol_Num'
p375
aS'Mat_An_Chil_Wel_Cen_Num'
p376
aS'Dist_Foot'
p377
aS'Hos_Allop_Par_Med_Staf_In_Pos_Num'
p378
aS'Sel_Hel_Group_SH_Stat'
p379
ag182
aS'Per_Pas_an_Other_Graz_Lan_Ar_in_Hec'
p380
aS'Pub_Dis_System_PD_Shop_Stat'
p381
aS'Gov_Man_Instit_Num'
p382
aS'Dist_Ar_an_Scien_Deg_Col'
p383
aS'ATM_Stat'
p384
aS'Priv_Ar_an_Scien_Deg_Col_Num'
p385
aS'Priv_Med_Col_Num'
p386
aS'No_System_Gar_on_road_street_Stat'
p387
aS'Near_Vil_Tow_Nam_hav_Voc_Train_School_IT'
p388
aS'Hos_Alter_Med_Doc_Tot_Stren_Num'
p389
aS'Pow_Sup_For_Al_User_Stat'
p390
aS'Gov_Man_Instit_Stat'
p391
aS'Non_Gov_Med_fac_Med_Shop_Num'
p392
aS'Dist_Wat_Boun_Mac'
p393
aS'Dist_Grav_kuc_Road'
p394
aS'Nut_Cen_IC_Stat'
p395
a.