(lp0
S'Near_Tow_Nam'
p1
aS'Dist_Priv_Cour_Fac'
p2
aS'Dist_Mob_Phon_Cov'
p3
aS'Vil_Nam'
p4
aS'Dist_Cin_Vid_Hal'
p5
aS'Near_Vil_Tow_Nam_hav_Other'
p6
aS'CD_Bloc_Nam'
p7
aS'Man_Com_Fir'
p8
aS'Dist_Pr_Prim_School'
p9
aS'Han_Com_Sec'
p10
aS'Dist_Prim_Heal_Cen'
p11
aS'Dist_Stat_Hig'
p12
aS'Dist_Spor_Fiel'
p13
aS'Near_Vil_Tow_Nam_hav_School_For_Dis'
p14
aS'Near_Fac_Dis_in_Km'
p15
aS'Dist_Bir_an_Deat_Reg_Offic'
p16
aS'Near_Vil_Tow_Nam_hav_Priv_Engin_Col'
p17
aS'Man_Com_Thir'
p18
aS'Man_Com_Sec'
p19
aS'Dist_Blac_Top_puc_Road'
p20
aS'Dist_Nut_Cen_ICDS'
p21
aS'Dist_Com_Ban'
p22
aS'Dist_Aut_Mod_Aut'
p23
aS'Dist_Cy_pul_Ric_man_driv'
p24
aS'Dist_Mob_Heal_Clin'
p25
aS'Dist_Hos_Alter_Med'
p26
aS'Dist_Med_Col'
p27
aS'Dist_Coop_Ban'
p28
aS'Gram_Pan_Nam'
p29
aS'Dist_Pol'
p30
aS'Near_Vil_Tow_Nam_hav_Sec_School'
p31
aS'Dist_Hos_Allop'
p32
aS'Dist_Assem_Pol_Stn'
p33
aS'Near_Vil_Tow_Nam_hav_Prim_School'
p34
aS'Dist_Nut_Cen_Angan_Cen'
p35
aS'Dist_Pub_Read_Room'
p36
aS'Dist_Priv_Bus_Ser'
p37
aS'Dist_Fam_Wel'
p38
aS'Dis_Nam'
p39
aS'Dist_Inter_Caf_Com_Ser_Cen_CS'
p40
aS'Dist_Car_Driv_by_Anim'
p41
aS'Dist_Com_Heal_Cen'
p42
aS'Dist_Dail_New_Sup'
p43
aS'Dist_Tel_lan'
p44
aS'Dist_Dis'
p45
aS'Near_Stat_Tow_Nam'
p46
aS'Near_Vil_Tow_Nam_hav_Mid_School'
p47
aS'Han_Com_Thir'
p48
aS'Dist_Com_Cen_wit_wit_TV'
p49
aS'Dist_Nut_Cen_Other'
p50
aS'Near_Vil_Tow_Nam_hav_Ar_an_Scien_Deg_Col'
p51
aS'Agric_Com_Fir'
p52
aS'Dist_Van'
p53
aS'Agric_Com_Thir'
p54
aS'Dist_Pub_Dis_System_PD_Shop'
p55
aS'Dist_Pin_Cod'
p56
aS'Dist_School_For_Dis'
p57
aS'Dist_Rail_Stn'
p58
aS'Dist_Week_Haat'
p59
aS'Dist_Cy_pul_Ric_mac_driv'
p60
aS'Dist_Pos_Offic'
p61
aS'Near_Vil_Tow_Nam_hav_Pr_Prim_School'
p62
aS'Dist_Mid_School'
p63
aS'Dist_Sea_Riv_Fer_Ser'
p64
aS'Dist_Pub_Bus_Ser'
p65
aS'Dist_Al_Weat_Road'
p66
aS'Dist_Mat_An_Chil_Wel_Cen'
p67
aS'Sub_Dis_Head_Quar_Nam'
p68
aS'Dist_Sub_Pos_Offic'
p69
aS'Dist_Sec_School'
p70
aS'Sub_Dis_Nam'
p71
aS'Dist_Other_Dis_Road'
p72
aS'Dist_Agric_Mar_Soc'
p73
aS'Dist_Tax'
p74
aS'Dist_ASHA'
p75
aS'Near_Vil_Tow_Nam_hav_Pol'
p76
aS'Dist_Sel_Hel_Group_SH'
p77
aS'Dist_Vet_Hos'
p78
aS'Dist_Pub_Lib'
p79
aS'Dist_Pos_An_Tel_Offic'
p80
aS'Dist_Voc_Train_School_IT'
p81
aS'Dist_Pub_Cal_Offic_Mob_PC'
p82
aS'Dist_Other'
p83
aS'Han_Com_Fir'
p84
aS'Dist_Man_Instit'
p85
aS'Near_Vil_Tow_Nam_hav_Sen_Sec_School'
p86
aS'Near_Vil_Tow_Nam_hav_Non_For_Train_Cen'
p87
aS'Dis_Head_Quar_Nam'
p88
aS'Dist_Priv_Engin_Col'
p89
aS'Near_Vil_Tow_Nam_hav_Man_Instit'
p90
aS'Dist_TB_Clin'
p91
aS'Dist_Maj_Dis_Road'
p92
aS'Dist_Spor_Club_Rec_Cen'
p93
aS'Dist_Trac'
p94
aS'Stat_Nam'
p95
aS'Dist_Sen_Sec_School'
p96
aS'Gram_Pan_Cod'
p97
aS'Near_Tow_Dis_from_Vil_in_Km'
p98
aS'Dist_Nat_Hig'
p99
aS'Near_Stat_Tow_wit_th_Stat_UT_Nam'
p100
aS'Dist_Prim_Heal_Sub_Cen'
p101
aS'Agric_Com_Sec'
p102
aS'Dist_Non_For_Train_Cen'
p103
aS'Near_Vil_Tow_Nam_hav_Med_Col'
p104
aS'Dist_Prim_School'
p105
aS'Dist_Agric_Cred_Soc'
p106
aS'Dist_Man_Reg_Mar'
p107
aS'Dist_Nav_Wat_Riv_Can'
p108
aS'Dist_Foot'
p109
aS'Dist_Ar_an_Scien_Deg_Col'
p110
aS'Near_Vil_Tow_Nam_hav_Voc_Train_School_IT'
p111
aS'Dist_Wat_Boun_Mac'
p112
aS'Dist_Grav_kuc_Road'
p113
a.