(lp0
S'Maj_Dis_Road_Stat'
p1
aS'Mat_An_Chil_Wel_Cen_Doc_In_Pos_Num'
p2
aS'Priv_Mid_School_Stat'
p3
aS'TB_Clin_Par_Med_Par_Med_Staf_In_Pos_Num'
p4
aS'Priv_Engin_Col_Stat'
p5
aS'Ref_Year'
p6
aS'Week_Haat_Stat'
p7
aS'Uncov_Wel_Stat'
p8
aS'Foot_Stat'
p9
aS'Car_Driv_by_Anim_Stat'
p10
aS'Trac_Stat'
p11
aS'Gov_Ar_an_Scien_Deg_Col_Num'
p12
aS'Tan_Pon_Lak_Fun_Al_roun_th_year_Stat'
p13
aS'Pow_Sup_For_Dom_Us_Sum_April_Sep_per_day_in_Hour'
p14
aS'Priv_Non_For_Train_Cen_Stat'
p15
aS'Agric_Cred_Soc_Stat'
p16
aS'Gov_Mid_School_Num'
p17
aS'Prim_Heal_Cen_Par_Med_Staf_In_Pos_Num'
p18
aS'Prim_Heal_Cen_Num'
p19
aS'Uncov_Wel_Fun_Al_roun_th_year_Stat'
p20
aS'Non_Gov_Med_fac_Med_Prctit_wit_MB_Deg_Num'
p21
aS'Pow_Sup_For_Dom_Us_Stat'
p22
aS'Pub_Lib_Stat'
p23
aS'Pub_Bus_Ser_Stat'
p24
aS'Cur_Fal_Ar_in_Hec'
p25
aS'Priv_Pol_Stat'
p26
aS'Priv_Sec_School_Stat'
p27
aS'Tot_Sched_Cas_Pop_of_Vil'
p28
aS'Wel_Tub_Wel_Ar_in_Hec'
p29
aS'Pos_An_Tel_Offic_Stat'
p30
aS'Mob_Heal_Clin_Doc_Tot_Stren_Num'
p31
aS'Near_Ar_an_Scien_Deg_Col_Gov_1_Priv_2'
p32
aS'Other_Dis_Road_Stat'
p33
aS'Net_Ar_Sow_in_Hec'
p34
aS'Nav_Wat_Riv_Can_Stat'
p35
aS'TB_Clin_Doc_In_Pos_Num'
p36
aS'Prim_Heal_Sub_Cen_Par_Med_Staf_Tot_Stren_Num'
p37
aS'Near_Stat_Tow_wit_th_Stat_UT_Dis_in_km'
p38
aS'Gov_Engin_Col_Stat'
p39
aS'Priv_Prim_School_Stat'
p40
aS'Hos_Allop_Num'
p41
aS'Cul_Was_Lan_Ar_in_Hec'
p42
aS'Near_Med_Col_Gov_1_Priv_2'
p43
aS'Priv_Mid_School_Num'
p44
aS'Dis_Par_Med_Staf_In_Pos_Num'
p45
aS'Whet_Drain_wat_is_dis_dir_in_wat_bod_or_to_sew_plan_For_Wat_Bod_1_Sew_Plan_2'
p46
aS'Blac_Top_puc_Road_Stat'
p47
aS'Near_School_For_Dis_Gov_1_Priv_2'
p48
aS'Mat_An_Chil_Wel_Cen_Par_Med_Staf_In_Pos_Num'
p49
aS'Ar_Irrig_by_Sour_in_Hec'
p50
aS'Tot_Sched_Trib_Fem_Pop_of_Vil'
p51
aS'Fam_Wel_Cen_Doc_In_Pos_Num'
p52
aS'Priv_Sen_Sec_School_Stat'
p53
aS'Tot_Geog_Ar_in_Hec'
p54
aS'Bir_an_Deat_Reg_Offic_Stat'
p55
aS'Hos_Allop_Doc_Tot_Stren_Num'
p56
aS'Sea_Riv_Fer_Ser_Stat'
p57
aS'Gov_Sen_Sec_School_Stat'
p58
aS'Tap_Wat_Untreat_Stat'
p59
aS'Pos_Offic_Stat'
p60
aS'Com_Ban_Stat'
p61
aS'Nat_Hig_Stat'
p62
aS'Fam_Wel_Cen_Num'
p63
aS'Priv_Med_Col_Stat'
p64
aS'Rur_Prod_mar_or_San_har_out_avail_near_th_vil_Stat'
p65
aS'Gov_Voc_Train_School_IT_Num'
p66
aS'Han_Pum_Fun_Al_roun_th_year_Stat'
p67
aS'Gov_Sec_School_Num'
p68
aS'Com_Toil_Com_includ_Bat_for_Gen_Pub_Stat'
p69
aS'Gov_Sen_Sec_School_Num'
p70
aS'Gov_Ar_an_Scien_Deg_Col_Stat'
p71
aS'Sprin_Stat'
p72
aS'Priv_Sec_School_Num'
p73
aS'Tap_Wat_Treat_Fun_Al_roun_th_year_Stat'
p74
aS'Tan_Pon_Lak_Stat'
p75
aS'Dis_Doc_Tot_Stren_Num'
p76
aS'Tap_Wat_Untreat_Fun_Al_roun_th_year_Stat'
p77
aS'PI_Cod'
p78
aS'Mob_Heal_Clin_Num'
p79
aS'Tax_Stat'
p80
aS'Mob_Heal_Clin_Par_Med_Staf_Tot_Stren_Num'
p81
aS'Vet_Hos_Par_Med_Staf_Tot_Stren_Num'
p82
aS'Gov_Other_Num'
p83
aS'Tot_Sched_Cas_Fem_Pop_of_Vil'
p84
aS'Gov_School_For_Dis_Stat'
p85
aS'Near_Sen_Sec_School_Gov_1_Priv_2'
p86
aS'Riv_Can_Fun_in_Sum_mon_April_Sep_Stat'
p87
aS'Non_Gov_Med_fac_Char_Num'
p88
aS'Pow_Sup_For_Al_User_Sum_April_Sep_per_day_in_Hour'
p89
aS'Gov_Other_Stat'
p90
aS'Vet_Hos_Num'
p91
aS'Non_Gov_Med_fac_Other_Num'
p92
aS'Near_Pol_Gov_1_Priv_2'
p93
aS'Gov_Pr_Prim_School_Nur_LK_UK_Num'
p94
aS'Near_Man_Instit_Gov_1_Priv_2'
p95
aS'Vil_Cod'
p96
aS'Other_Fun_Al_roun_th_year_Stat'
p97
aS'Non_Gov_Med_fac_Out_Pat_Num'
p98
aS'Pow_Sup_For_Al_User_Win_Oc_Mar_per_day_in_Hour'
p99
aS'Sub_Pos_Offic_Stat'
p100
aS'Pow_Sup_For_Agric_Us_Win_Oc_Mar_per_day_in_Hour'
p101
aS'Al_Weat_Road_Stat'
p102
aS'TB_Clin_Num'
p103
aS'Near_Priv_Engin_Col_Gov_1_Priv_2'
p104
aS'Dis_Num'
p105
aS'Dis_Par_Med_Staf_Tot_Stren_Num'
p106
aS'Priv_Other_Stat'
p107
aS'Riv_Can_Fun_Al_roun_th_year_Stat'
p108
aS'Vet_Hos_Par_Med_Staf_In_Pos_Num'
p109
aS'Tan_Lak_Ar_in_Hec'
p110
aS'Sub_Dis_Cod'
p111
aS'Tot_Fem_Pop_of_Vil'
p112
aS'Han_Pum_Stat'
p113
aS'Nut_Cen_Angan_Cen_Stat'
p114
aS'Near_Stat_Tow_Dis_in_km'
p115
aS'Pow_Sup_For_Agric_Us_Stat'
p116
aS'Can_Ar_in_Hec'
p117
aS'No_Drain_Stat'
p118
aS'Pub_Read_Room_Stat'
p119
aS'Tub_Wel_Bor_Fun_in_Sum_mon_April_Sep_Stat'
p120
aS'For_Ar_in_Hec'
p121
aS'Priv_Pr_Prim_School_Nur_LK_UK_Num'
p122
aS'Bar_Un_cul_Lan_Ar_in_Hec'
p123
aS'Mat_An_Chil_Wel_Cen_Doc_Tot_Stren_Num'
p124
aS'Lan_Under_Mis_Tr_Crop_et_Ar_in_Hec'
p125
aS'Tub_Wel_Bor_Stat'
p126
aS'Gov_Prim_School_Stat'
p127
aS'Com_Toil_Com_exclud_Bat_for_Gen_Pub_Stat'
p128
aS'Gov_Voc_Train_School_IT_Stat'
p129
aS'Priv_Bus_Ser_Stat'
p130
aS'Near_Sec_School_Gov_1_Priv_2'
p131
aS'Prim_Heal_Sub_Cen_Doc_Tot_Stren_Num'
p132
aS'Sub_Dis_Head_Quar_Dis_in_km'
p133
aS'Com_was_dis_system_after_hous_to_hous_col_Stat'
p134
aS'Non_Gov_Med_fac_In_An_Out_Pat_Num'
p135
aS'Open_Drain_Stat'
p136
aS'Pow_Sup_For_Dom_Us_Win_Oc_Mar_per_day_in_Hour'
p137
aS'ASHA_Stat'
p138
aS'Pub_Cal_Offic_Mob_PC_Stat'
p139
aS'Priv_Cour_Fac_Stat'
p140
aS'Coop_Ban_Stat'
p141
aS'Tap_Wat_Treat_Fun_in_Sum_mon_April_Sep_Stat'
p142
aS'Cov_Wel_Stat'
p143
aS'Gov_Prim_School_Num'
p144
aS'Gov_Sec_School_Stat'
p145
aS'Open_Puc_Drain_Uncov_Stat'
p146
aS'Mob_Phon_Cov_Stat'
p147
aS'Sprin_Fun_Al_roun_th_year_Stat'
p148
aS'Cin_Vid_Hal_Stat'
p149
aS'Tot_Sched_Trib_Mal_Pop_of_Vil'
p150
aS'Near_Voc_Train_School_IT_Gov_1_Priv_2'
p151
aS'Fam_Wel_Cen_Par_Med_Staf_Tot_Stren_Num'
p152
aS'Aut_Mod_Aut_Stat'
p153
aS'Tot_Unir_Lan_Ar_in_Hec'
p154
aS'Rur_Prod_Cen_or_San_har_out_avail_near_th_vil_Stat'
p155
aS'Tot_Pop_of_Vil'
p156
aS'Gov_Med_Col_Stat'
p157
aS'Pow_Sup_For_Com_Us_Stat'
p158
aS'Wat_Ar_in_Hec'
p159
aS'Tel_lan_Stat'
p160
aS'Wat_Boun_Mac_Stat'
p161
aS'Near_Other_Gov_1_Priv_2'
p162
aS'Non_Gov_Med_fac_Med_Prctit_wit_other_Deg_Num'
p163
aS'Prim_Heal_Cen_Par_Med_Staf_Tot_Stren_Num'
p164
aS'Han_Pum_Fun_in_Sum_mon_April_Sep_Stat'
p165
aS'Mat_An_Chil_Wel_Cen_Par_Med_Staf_Tot_Stren_Num'
p166
aS'Other_Sour_spec_Ar_in_Hec'
p167
aS'TB_Clin_Par_Med_Par_Med_Staf_Tot_Stren_Num'
p168
aS'Vet_Hos_Doc_Tot_Stren_Num'
p169
aS'Near_Prim_School_Gov_1_Priv_2'
p170
aS'Agric_Mar_Soc_Stat'
p171
aS'Grav_kuc_Road_Stat'
p172
aS'Priv_Other_Num'
p173
aS'Com_Bio_gas_for_prod_use_Stat'
p174
aS'Priv_Voc_Train_School_IT_Stat'
p175
aS'Hos_Allop_Doc_In_Pos_Num'
p176
aS'Mob_Heal_Clin_Doc_In_Pos_Num'
p177
aS'Assem_Pol_Stn_Stat'
p178
aS'Gov_Non_For_Train_Cen_Num'
p179
aS'Prim_Heal_Sub_Cen_Num'
p180
aS'Fam_Wel_Cen_Doc_Tot_Stren_Num'
p181
aS'Inter_Caf_Com_Ser_Cen_CS_Stat'
p182
aS'Priv_Prim_School_Num'
p183
aS'Gov_Pol_Stat'
p184
aS'Com_Cen_TV_Stat'
p185
aS'Non_Gov_Med_fac_Trad_Prac_an_Fait_Heal_Num'
p186
aS'Dail_New_Sup_Stat'
p187
aS'Mob_Heal_Clin_Par_Med_Staf_In_Pos_Num'
p188
aS'Rail_Stn_Stat'
p189
aS'Near_Pr_Prim_School_Nur_LK_UK_Stat_Gov_1_Priv_2'
p190
aS'Ar_under_Non_Agric_Uses_in_Hec'
p191
aS'Fam_Wel_Cen_Par_Med_Staf_In_Pos_Num'
p192
aS'Prim_Heal_Cen_Doc_Tot_Stren_Num'
p193
aS'Prim_Heal_Sub_Cen_Doc_In_Pos_Num'
p194
aS'Dis_Head_Quar_Dis_in_km'
p195
aS'Near_Non_For_Train_Cen_Gov_1_Priv_2'
p196
aS'Gov_Mid_School_Stat'
p197
aS'Hos_Allop_Par_Med_Staf_Tot_Stren_Num'
p198
aS'Open_Puc_Drain_Cov_wit_Til_Slab_Stat'
p199
aS'Open_Kuc_Drain_Stat'
p200
aS'Gov_Pr_Prim_School_Nur_LK_UK_Stat'
p201
aS'Is_th_Ar_Cov_under_Tot_San_Cam_TS_Stat'
p202
aS'Near_Mid_School_Gov_1_Priv_2'
p203
aS'Vet_Hos_Doc_In_Pos_Num'
p204
aS'Man_Reg_Mar_Stat'
p205
aS'Uncov_Wel_Fun_in_Sum_mon_April_Sep_Stat'
p206
aS'Pow_Sup_For_Com_Us_Sum_April_Sep_per_day_in_Hour'
p207
aS'Tan_Pon_Lak_Fun_in_Sum_mon_April_Sep_Stat'
p208
aS'TB_Clin_Doc_Tot_Stren_Num'
p209
aS'Dis_Doc_In_Pos_Num'
p210
aS'Priv_School_For_Dis_Stat'
p211
aS'Cov_Wel_Fun_in_Sum_Stat'
p212
aS'Pow_Sup_For_Agric_Us_Sum_April_Sep_per_day_in_Hour'
p213
aS'Spor_Club_Rec_Cen_Stat'
p214
aS'Cov_Wel_Fun_Al_yr_Stat'
p215
aS'Pow_Sup_For_Com_Us_Win_Oc_Mar_per_day_in_Hour'
p216
aS'Non_Gov_Med_fac_Med_Prac_wit_no_Deg_Num'
p217
aS'Tot_Sched_Cas_Mal_Pop_of_Vil'
p218
aS'Tot_Hous'
p219
aS'Stat_Cod'
p220
aS'Riv_Can_Stat'
p221
aS'Spor_Fiel_Stat'
p222
aS'Tap_Wat_Treat_Stat'
p223
aS'Fal_Lan_other_than_Cur_Fal_Ar_in_Hec'
p224
aS'Gov_Non_For_Train_Cen_Stat'
p225
aS'Tap_Wat_Untreat_Fun_in_Sum_mon_April_Sep_Stat'
p226
aS'Vil_Pin_Cod_Stat'
p227
aS'Cy_pul_Ric_man_driv_Stat'
p228
aS'Nut_Cen_Other_Stat'
p229
aS'Stat_Hig_Stat'
p230
aS'Cy_pul_Ric_mac_driv_Stat'
p231
aS'Sprin_Fun_in_Sum_mon_April_Sep_Stat'
p232
aS'Other_Stat'
p233
aS'Tot_Mal_Pop_of_Vil'
p234
aS'Priv_Sen_Sec_School_Num'
p235
aS'Van_Stat'
p236
aS'Tub_Wel_Bor_Fun_Al_roun_th_year_Stat'
p237
aS'Prim_Heal_Cen_Doc_In_Pos_Num'
p238
aS'Priv_Pr_Prim_School_Nur_LK_UK_Stat'
p239
aS'Priv_Man_Instit_Stat'
p240
aS'Other_Fun_in_Sum_mon_April_Sep_Stat'
p241
aS'Prim_Heal_Sub_Cen_Par_Med_Staf_In_Pos_Num'
p242
aS'Priv_Voc_Train_School_IT_Num'
p243
aS'Priv_Ar_an_Scien_Deg_Col_Stat'
p244
aS'Clos_Drain_Stat'
p245
aS'Tot_Sched_Trib_Pop_of_Vil'
p246
aS'Mat_An_Chil_Wel_Cen_Num'
p247
aS'Hos_Allop_Par_Med_Staf_In_Pos_Num'
p248
aS'Sel_Hel_Group_SH_Stat'
p249
aS'Per_Pas_an_Other_Graz_Lan_Ar_in_Hec'
p250
aS'Pub_Dis_System_PD_Shop_Stat'
p251
aS'ATM_Stat'
p252
aS'Priv_Ar_an_Scien_Deg_Col_Num'
p253
aS'Priv_Med_Col_Num'
p254
aS'No_System_Gar_on_road_street_Stat'
p255
aS'Pow_Sup_For_Al_User_Stat'
p256
aS'Gov_Man_Instit_Stat'
p257
aS'Non_Gov_Med_fac_Med_Shop_Num'
p258
aS'Nut_Cen_IC_Stat'
p259
a.