(iDataServices.Ontology
Ontology
p0
(dp1
S'fields'
p2
(lp3
S'Maj_Dis_Road_Stat'
p4
aS'Mat_An_Chil_Wel_Cen_Doc_In_Pos_Num'
p5
aS'Priv_Mid_School_Stat'
p6
aS'TB_Clin_Par_Med_Par_Med_Staf_In_Pos_Num'
p7
aS'Hos_Alter_Med_Num'
p8
aS'Near_Tow_Nam'
p9
aS'Dist_Priv_Cour_Fac'
p10
aS'Priv_Engin_Col_Stat'
p11
aS'Ref_Year'
p12
aS'Gov_School_For_Dis_Num'
p13
aS'Dist_Mob_Phon_Cov'
p14
aS'Vil_Nam'
p15
aS'Week_Haat_Stat'
p16
aS'Uncov_Wel_Stat'
p17
aS'Foot_Stat'
p18
aS'Priv_Man_Instit_Num'
p19
aS'Car_Driv_by_Anim_Stat'
p20
aS'Trac_Stat'
p21
aS'Gov_Ar_an_Scien_Deg_Col_Num'
p22
aS'Tan_Pon_Lak_Fun_Al_roun_th_year_Stat'
p23
aS'Pow_Sup_For_Dom_Us_Sum_April_Sep_per_day_in_Hour'
p24
aS'Priv_Non_For_Train_Cen_Stat'
p25
aS'Dist_Cin_Vid_Hal'
p26
aS'Near_Vil_Tow_Nam_hav_Other'
p27
aS'Agric_Cred_Soc_Stat'
p28
aS'CD_Bloc_Nam'
p29
aS'Hos_Alter_Med_Par_Med_Staf_Tot_Stren_Num'
p30
aS'Gov_Mid_School_Num'
p31
aS'Man_Com_Fir'
p32
aS'Dist_Pr_Prim_School'
p33
aS'Han_Com_Sec'
p34
aS'Prim_Heal_Cen_Par_Med_Staf_In_Pos_Num'
p35
aS'Prim_Heal_Cen_Num'
p36
aS'Uncov_Wel_Fun_Al_roun_th_year_Stat'
p37
aS'Dist_Prim_Heal_Cen'
p38
aS'Non_Gov_Med_fac_Med_Prctit_wit_MB_Deg_Num'
p39
aS'Pow_Sup_For_Dom_Us_Stat'
p40
aS'Dist_Stat_Hig'
p41
aS'Pub_Lib_Stat'
p42
aS'Pub_Bus_Ser_Stat'
p43
aS'Cur_Fal_Ar_in_Hec'
p44
aS'Priv_Pol_Stat'
p45
aS'Priv_Sec_School_Stat'
p46
aS'Tot_Sched_Cas_Pop_of_Vil'
p47
aS'Wel_Tub_Wel_Ar_in_Hec'
p48
aS'Pos_An_Tel_Offic_Stat'
p49
aS'Dist_Spor_Fiel'
p50
aS'Mob_Heal_Clin_Doc_Tot_Stren_Num'
p51
aS'Near_Ar_an_Scien_Deg_Col_Gov_1_Priv_2'
p52
aS'Other_Dis_Road_Stat'
p53
aS'Net_Ar_Sow_in_Hec'
p54
aS'Near_Vil_Tow_Nam_hav_School_For_Dis'
p55
aS'Nav_Wat_Riv_Can_Stat'
p56
aS'TB_Clin_Doc_In_Pos_Num'
p57
aS'Prim_Heal_Sub_Cen_Par_Med_Staf_Tot_Stren_Num'
p58
aS'Priv_Engin_Col_Num'
p59
aS'Near_Fac_Dis_in_Km'
p60
aS'Near_Stat_Tow_wit_th_Stat_UT_Dis_in_km'
p61
aS'Gov_Engin_Col_Stat'
p62
aS'Priv_Prim_School_Stat'
p63
aS'Dist_Bir_an_Deat_Reg_Offic'
p64
aS'Hos_Allop_Num'
p65
aS'Near_Vil_Tow_Nam_hav_Priv_Engin_Col'
p66
aS'Man_Com_Thir'
p67
aS'Cul_Was_Lan_Ar_in_Hec'
p68
aS'Man_Com_Sec'
p69
aS'Dist_Blac_Top_puc_Road'
p70
aS'Near_Med_Col_Gov_1_Priv_2'
p71
aS'Priv_Mid_School_Num'
p72
aS'Dist_Nut_Cen_ICDS'
p73
aS'Dist_Com_Ban'
p74
aS'Dis_Par_Med_Staf_In_Pos_Num'
p75
aS'Dist_Aut_Mod_Aut'
p76
aS'Dist_Cy_pul_Ric_man_driv'
p77
aS'Dist_Mob_Heal_Clin'
p78
aS'Whet_Drain_wat_is_dis_dir_in_wat_bod_or_to_sew_plan_For_Wat_Bod_1_Sew_Plan_2'
p79
aS'Blac_Top_puc_Road_Stat'
p80
aS'Near_School_For_Dis_Gov_1_Priv_2'
p81
aS'Dist_Hos_Alter_Med'
p82
aS'Stat_Tow_Out_th_Stat_UT_if_near_on_is_not_wit_th_Stat_UT_Nam'
p83
aS'Dist_Med_Col'
p84
aS'Mat_An_Chil_Wel_Cen_Par_Med_Staf_In_Pos_Num'
p85
aS'Ar_Irrig_by_Sour_in_Hec'
p86
aS'Dist_Coop_Ban'
p87
aS'Tot_Sched_Trib_Fem_Pop_of_Vil'
p88
aS'Gram_Pan_Nam'
p89
aS'Fam_Wel_Cen_Doc_In_Pos_Num'
p90
aS'Priv_Sen_Sec_School_Stat'
p91
aS'Tot_Geog_Ar_in_Hec'
p92
aS'Dist_Pol'
p93
aS'Bir_an_Deat_Reg_Offic_Stat'
p94
aS'Hos_Allop_Doc_Tot_Stren_Num'
p95
aS'Sea_Riv_Fer_Ser_Stat'
p96
aS'Gov_Sen_Sec_School_Stat'
p97
aS'Com_Heal_Cen_Doc_Tot_Stren_Num'
p98
aS'Tap_Wat_Untreat_Stat'
p99
aS'Pos_Offic_Stat'
p100
aS'Com_Ban_Stat'
p101
aS'Nat_Hig_Stat'
p102
aS'Fam_Wel_Cen_Num'
p103
aS'Priv_Med_Col_Stat'
p104
aS'Near_Vil_Tow_Nam_hav_Sec_School'
p105
aS'Dist_Hos_Allop'
p106
aS'Rur_Prod_mar_or_San_har_out_avail_near_th_vil_Stat'
p107
aS'Dist_Assem_Pol_Stn'
p108
aS'Near_Vil_Tow_Nam_hav_Prim_School'
p109
aS'Gov_Voc_Train_School_IT_Num'
p110
aS'Han_Pum_Fun_Al_roun_th_year_Stat'
p111
aS'Gov_Sec_School_Num'
p112
aS'Dist_Nut_Cen_Angan_Cen'
p113
aS'Com_Toil_Com_includ_Bat_for_Gen_Pub_Stat'
p114
aS'Gov_Sen_Sec_School_Num'
p115
aS'Gov_Ar_an_Scien_Deg_Col_Stat'
p116
aS'Sprin_Stat'
p117
aS'Dist_Pub_Read_Room'
p118
aS'Priv_Sec_School_Num'
p119
aS'Tap_Wat_Treat_Fun_Al_roun_th_year_Stat'
p120
aS'Dist_Priv_Bus_Ser'
p121
aS'Tan_Pon_Lak_Stat'
p122
aS'Dis_Doc_Tot_Stren_Num'
p123
aS'Tap_Wat_Untreat_Fun_Al_roun_th_year_Stat'
p124
aS'PI_Cod'
p125
aS'Com_Heal_Cen_Num'
p126
aS'Mob_Heal_Clin_Num'
p127
aS'Dist_Fam_Wel'
p128
aS'Tax_Stat'
p129
aS'Dis_Nam'
p130
aS'Dist_Inter_Caf_Com_Ser_Cen_CS'
p131
aS'Mob_Heal_Clin_Par_Med_Staf_Tot_Stren_Num'
p132
aS'Dist_Car_Driv_by_Anim'
p133
aS'Vet_Hos_Par_Med_Staf_Tot_Stren_Num'
p134
aS'Gov_Other_Num'
p135
aS'Tot_Sched_Cas_Fem_Pop_of_Vil'
p136
aS'Gov_School_For_Dis_Stat'
p137
aS'Near_Sen_Sec_School_Gov_1_Priv_2'
p138
aS'Riv_Can_Fun_in_Sum_mon_April_Sep_Stat'
p139
aS'Com_Heal_Cen_Doc_In_Pos_Num'
p140
aS''
p141
aS'Dist_Com_Heal_Cen'
p142
aS'Dist_Dail_New_Sup'
p143
aS'Non_Gov_Med_fac_Char_Num'
p144
aS'Pow_Sup_For_Al_User_Sum_April_Sep_per_day_in_Hour'
p145
aS'Gov_Other_Stat'
p146
aS'Priv_Pol_Num'
p147
aS'Dist_Tel_lan'
p148
aS'Vet_Hos_Num'
p149
aS'Dist_Dis'
p150
aS'Non_Gov_Med_fac_Other_Num'
p151
aS'Near_Pol_Gov_1_Priv_2'
p152
aS'Near_Stat_Tow_Nam'
p153
aS'Near_Vil_Tow_Nam_hav_Mid_School'
p154
aS'Gov_Pr_Prim_School_Nur_LK_UK_Num'
p155
aS'Near_Man_Instit_Gov_1_Priv_2'
p156
aS'Vil_Cod'
p157
aS'Other_Fun_Al_roun_th_year_Stat'
p158
aS'Non_Gov_Med_fac_Out_Pat_Num'
p159
aS'Pow_Sup_For_Al_User_Win_Oc_Mar_per_day_in_Hour'
p160
aS'Han_Com_Thir'
p161
aS'Dist_Com_Cen_wit_wit_TV'
p162
aS'Sub_Pos_Offic_Stat'
p163
aS'Pow_Sup_For_Agric_Us_Win_Oc_Mar_per_day_in_Hour'
p164
aS'Dist_Nut_Cen_Other'
p165
aS'Al_Weat_Road_Stat'
p166
aS'TB_Clin_Num'
p167
aS'Near_Priv_Engin_Col_Gov_1_Priv_2'
p168
aS'Dis_Num'
p169
aS'Dis_Par_Med_Staf_Tot_Stren_Num'
p170
aS'Near_Vil_Tow_Nam_hav_Ar_an_Scien_Deg_Col'
p171
aS'Hos_Alter_Med_Par_Med_Staf_In_Pos_Num'
p172
aS'Agric_Com_Fir'
p173
aS'Dist_Van'
p174
aS'Priv_Other_Stat'
p175
aS'Riv_Can_Fun_Al_roun_th_year_Stat'
p176
aS'Vet_Hos_Par_Med_Staf_In_Pos_Num'
p177
aS'Tan_Lak_Ar_in_Hec'
p178
aS'Sub_Dis_Cod'
p179
aS'Agric_Com_Thir'
p180
aS'Dist_Pub_Dis_System_PD_Shop'
p181
aS'Com_Heal_Cen_Par_Med_Staf_In_Pos_Num'
p182
aS'Tot_Fem_Pop_of_Vil'
p183
aS'Han_Pum_Stat'
p184
aS'Dist_Pin_Cod'
p185
aS'Nut_Cen_Angan_Cen_Stat'
p186
aS'Near_Stat_Tow_Dis_in_km'
p187
aS'Pow_Sup_For_Agric_Us_Stat'
p188
aS'Can_Ar_in_Hec'
p189
aS'No_Drain_Stat'
p190
aS'Pub_Read_Room_Stat'
p191
aS'Tub_Wel_Bor_Fun_in_Sum_mon_April_Sep_Stat'
p192
aS'For_Ar_in_Hec'
p193
aS'Priv_Pr_Prim_School_Nur_LK_UK_Num'
p194
aS'Bar_Un_cul_Lan_Ar_in_Hec'
p195
aS'Mat_An_Chil_Wel_Cen_Doc_Tot_Stren_Num'
p196
aS'Lan_Under_Mis_Tr_Crop_et_Ar_in_Hec'
p197
aS'Tub_Wel_Bor_Stat'
p198
aS'Gov_Prim_School_Stat'
p199
aS'Com_Toil_Com_exclud_Bat_for_Gen_Pub_Stat'
p200
aS'Gov_Voc_Train_School_IT_Stat'
p201
aS'Priv_Bus_Ser_Stat'
p202
aS'Dist_School_For_Dis'
p203
aS'Near_Sec_School_Gov_1_Priv_2'
p204
aS'Dist_Rail_Stn'
p205
aS'Prim_Heal_Sub_Cen_Doc_Tot_Stren_Num'
p206
aS'Sub_Dis_Head_Quar_Dis_in_km'
p207
aS'Com_was_dis_system_after_hous_to_hous_col_Stat'
p208
aS'Non_Gov_Med_fac_In_An_Out_Pat_Num'
p209
aS'Open_Drain_Stat'
p210
aS'Pow_Sup_For_Dom_Us_Win_Oc_Mar_per_day_in_Hour'
p211
aS'ASHA_Stat'
p212
aS'Stat_Tow_Out_th_Stat_UT_dis_if_near_on_is_not_wit_th_Stat_UT_Dis_in_km'
p213
aS'Dist_Week_Haat'
p214
aS'Pub_Cal_Offic_Mob_PC_Stat'
p215
aS'Priv_Cour_Fac_Stat'
p216
aS'Coop_Ban_Stat'
p217
aS'Tap_Wat_Treat_Fun_in_Sum_mon_April_Sep_Stat'
p218
aS'Cov_Wel_Stat'
p219
aS'Gov_Prim_School_Num'
p220
aS'Dist_Cy_pul_Ric_mac_driv'
p221
aS'Gov_Sec_School_Stat'
p222
aS'Open_Puc_Drain_Uncov_Stat'
p223
aS'Mob_Phon_Cov_Stat'
p224
aS'Sprin_Fun_Al_roun_th_year_Stat'
p225
aS'Cin_Vid_Hal_Stat'
p226
aS'Tot_Sched_Trib_Mal_Pop_of_Vil'
p227
aS'Near_Voc_Train_School_IT_Gov_1_Priv_2'
p228
aS'Dist_Pos_Offic'
p229
aS'Fam_Wel_Cen_Par_Med_Staf_Tot_Stren_Num'
p230
aS'Gov_Med_Col_Num'
p231
aS'Aut_Mod_Aut_Stat'
p232
aS'Tot_Unir_Lan_Ar_in_Hec'
p233
aS'Rur_Prod_Cen_or_San_har_out_avail_near_th_vil_Stat'
p234
aS'Tot_Pop_of_Vil'
p235
aS'Gov_Med_Col_Stat'
p236
aS'Pow_Sup_For_Com_Us_Stat'
p237
aS'Near_Vil_Tow_Nam_hav_Pr_Prim_School'
p238
aS'Dist_Mid_School'
p239
aS'Dist_Sea_Riv_Fer_Ser'
p240
aS'Dist_Pub_Bus_Ser'
p241
aS'Dist_Al_Weat_Road'
p242
aS'Dist_Mat_An_Chil_Wel_Cen'
p243
aS'Sub_Dis_Head_Quar_Nam'
p244
aS'Wat_Ar_in_Hec'
p245
aS'Tel_lan_Stat'
p246
aS'Wat_Boun_Mac_Stat'
p247
aS'Dist_Sub_Pos_Offic'
p248
aS'Near_Other_Gov_1_Priv_2'
p249
aS'Dist_Sec_School'
p250
aS'Non_Gov_Med_fac_Med_Prctit_wit_other_Deg_Num'
p251
aS'Prim_Heal_Cen_Par_Med_Staf_Tot_Stren_Num'
p252
aS'Sub_Dis_Nam'
p253
aS'Han_Pum_Fun_in_Sum_mon_April_Sep_Stat'
p254
aS'Mat_An_Chil_Wel_Cen_Par_Med_Staf_Tot_Stren_Num'
p255
aS'Other_Sour_spec_Ar_in_Hec'
p256
aS'TB_Clin_Par_Med_Par_Med_Staf_Tot_Stren_Num'
p257
aS'Vet_Hos_Doc_Tot_Stren_Num'
p258
aS'Dist_Other_Dis_Road'
p259
aS'Dist_Agric_Mar_Soc'
p260
aS'Near_Prim_School_Gov_1_Priv_2'
p261
aS'Agric_Mar_Soc_Stat'
p262
aS'Grav_kuc_Road_Stat'
p263
aS'Priv_Other_Num'
p264
aS'Com_Bio_gas_for_prod_use_Stat'
p265
aS'Priv_Voc_Train_School_IT_Stat'
p266
aS'Hos_Allop_Doc_In_Pos_Num'
p267
aS'Mob_Heal_Clin_Doc_In_Pos_Num'
p268
aS'Assem_Pol_Stn_Stat'
p269
aS'Dist_Tax'
p270
aS'Gov_Non_For_Train_Cen_Num'
p271
aS'Prim_Heal_Sub_Cen_Num'
p272
aS'Dist_ASHA'
p273
aS'Fam_Wel_Cen_Doc_Tot_Stren_Num'
p274
aS'Inter_Caf_Com_Ser_Cen_CS_Stat'
p275
aS'Priv_Prim_School_Num'
p276
aS'Gov_Pol_Stat'
p277
aS'Com_Cen_TV_Stat'
p278
aS'Non_Gov_Med_fac_Trad_Prac_an_Fait_Heal_Num'
p279
aS'Dail_New_Sup_Stat'
p280
aS'Mob_Heal_Clin_Par_Med_Staf_In_Pos_Num'
p281
aS'Rail_Stn_Stat'
p282
aS'Near_Pr_Prim_School_Nur_LK_UK_Stat_Gov_1_Priv_2'
p283
ag141
aS'Near_Vil_Tow_Nam_hav_Pol'
p284
aS'Dist_Sel_Hel_Group_SH'
p285
aS'Ar_under_Non_Agric_Uses_in_Hec'
p286
aS'Fam_Wel_Cen_Par_Med_Staf_In_Pos_Num'
p287
aS'Prim_Heal_Cen_Doc_Tot_Stren_Num'
p288
aS'Dist_Vet_Hos'
p289
aS'Prim_Heal_Sub_Cen_Doc_In_Pos_Num'
p290
aS'Dis_Head_Quar_Dis_in_km'
p291
aS'Dist_Pub_Lib'
p292
aS'Near_Non_For_Train_Cen_Gov_1_Priv_2'
p293
aS'Gov_Mid_School_Stat'
p294
aS'Hos_Allop_Par_Med_Staf_Tot_Stren_Num'
p295
aS'Dist_Pos_An_Tel_Offic'
p296
aS'Dist_Voc_Train_School_IT'
p297
aS'Open_Puc_Drain_Cov_wit_Til_Slab_Stat'
p298
aS'Open_Kuc_Drain_Stat'
p299
aS'Gov_Pr_Prim_School_Nur_LK_UK_Stat'
p300
aS'Is_th_Ar_Cov_under_Tot_San_Cam_TS_Stat'
p301
aS'Near_Mid_School_Gov_1_Priv_2'
p302
aS'Vet_Hos_Doc_In_Pos_Num'
p303
aS'Man_Reg_Mar_Stat'
p304
aS'Uncov_Wel_Fun_in_Sum_mon_April_Sep_Stat'
p305
aS'Pow_Sup_For_Com_Us_Sum_April_Sep_per_day_in_Hour'
p306
aS'Tan_Pon_Lak_Fun_in_Sum_mon_April_Sep_Stat'
p307
aS'Dist_Pub_Cal_Offic_Mob_PC'
p308
aS'TB_Clin_Doc_Tot_Stren_Num'
p309
aS'Dis_Doc_In_Pos_Num'
p310
aS'Priv_School_For_Dis_Stat'
p311
aS'Cov_Wel_Fun_in_Sum_Stat'
p312
aS'Dist_Other'
p313
aS'Pow_Sup_For_Agric_Us_Sum_April_Sep_per_day_in_Hour'
p314
aS'Priv_Non_For_Train_Cen_Num'
p315
aS'Spor_Club_Rec_Cen_Stat'
p316
aS'Cov_Wel_Fun_Al_yr_Stat'
p317
aS'Pow_Sup_For_Com_Us_Win_Oc_Mar_per_day_in_Hour'
p318
aS'Han_Com_Fir'
p319
aS'Non_Gov_Med_fac_Med_Prac_wit_no_Deg_Num'
p320
aS'Gov_Engin_Col_Num'
p321
aS'Dist_Man_Instit'
p322
aS'Tot_Sched_Cas_Mal_Pop_of_Vil'
p323
aS'Near_Vil_Tow_Nam_hav_Sen_Sec_School'
p324
aS'Near_Vil_Tow_Nam_hav_Non_For_Train_Cen'
p325
aS'Tot_Hous'
p326
aS'Stat_Cod'
p327
aS'Dis_Head_Quar_Nam'
p328
aS'Dist_Priv_Engin_Col'
p329
aS'Near_Vil_Tow_Nam_hav_Man_Instit'
p330
aS'Riv_Can_Stat'
p331
aS'Spor_Fiel_Stat'
p332
aS'Dist_TB_Clin'
p333
aS'Dist_Maj_Dis_Road'
p334
aS'Dist_Spor_Club_Rec_Cen'
p335
aS'Tap_Wat_Treat_Stat'
p336
aS'Fal_Lan_other_than_Cur_Fal_Ar_in_Hec'
p337
aS'Gov_Non_For_Train_Cen_Stat'
p338
aS'Tap_Wat_Untreat_Fun_in_Sum_mon_April_Sep_Stat'
p339
aS'Dist_Trac'
p340
aS'Vil_Pin_Cod_Stat'
p341
aS'Stat_Nam'
p342
aS'Dist_Sen_Sec_School'
p343
aS'Cy_pul_Ric_man_driv_Stat'
p344
aS'Gram_Pan_Cod'
p345
aS'Nut_Cen_Other_Stat'
p346
aS'Stat_Hig_Stat'
p347
aS'Near_Tow_Dis_from_Vil_in_Km'
p348
aS'Cy_pul_Ric_mac_driv_Stat'
p349
aS'Sprin_Fun_in_Sum_mon_April_Sep_Stat'
p350
aS'Hos_Alter_Med_Doc_In_Pos_Num'
p351
aS'Dist_Nat_Hig'
p352
aS'Com_Heal_Cen_Par_Med_Staf_Tot_Stren_Num'
p353
aS'Other_Stat'
p354
aS'Tot_Mal_Pop_of_Vil'
p355
aS'Near_Stat_Tow_wit_th_Stat_UT_Nam'
p356
aS'Dist_Prim_Heal_Sub_Cen'
p357
aS'Priv_School_For_Dis_Num'
p358
aS'Priv_Sen_Sec_School_Num'
p359
aS'Agric_Com_Sec'
p360
aS'Dist_Non_For_Train_Cen'
p361
aS'Van_Stat'
p362
aS'Near_Vil_Tow_Nam_hav_Med_Col'
p363
aS'Tub_Wel_Bor_Fun_Al_roun_th_year_Stat'
p364
aS'Prim_Heal_Cen_Doc_In_Pos_Num'
p365
aS'Priv_Pr_Prim_School_Nur_LK_UK_Stat'
p366
aS'Dist_Prim_School'
p367
aS'Priv_Man_Instit_Stat'
p368
aS'Dist_Agric_Cred_Soc'
p369
aS'Other_Fun_in_Sum_mon_April_Sep_Stat'
p370
aS'Prim_Heal_Sub_Cen_Par_Med_Staf_In_Pos_Num'
p371
aS'Priv_Voc_Train_School_IT_Num'
p372
aS'Dist_Man_Reg_Mar'
p373
aS'Priv_Ar_an_Scien_Deg_Col_Stat'
p374
aS'Clos_Drain_Stat'
p375
aS'Tot_Sched_Trib_Pop_of_Vil'
p376
aS'Dist_Nav_Wat_Riv_Can'
p377
aS'Gov_Pol_Num'
p378
aS'Mat_An_Chil_Wel_Cen_Num'
p379
aS'Dist_Foot'
p380
aS'Hos_Allop_Par_Med_Staf_In_Pos_Num'
p381
aS'Sel_Hel_Group_SH_Stat'
p382
ag185
aS'Per_Pas_an_Other_Graz_Lan_Ar_in_Hec'
p383
aS'Pub_Dis_System_PD_Shop_Stat'
p384
aS'Gov_Man_Instit_Num'
p385
aS'Dist_Ar_an_Scien_Deg_Col'
p386
aS'ATM_Stat'
p387
aS'Priv_Ar_an_Scien_Deg_Col_Num'
p388
aS'Priv_Med_Col_Num'
p389
aS'No_System_Gar_on_road_street_Stat'
p390
aS'Near_Vil_Tow_Nam_hav_Voc_Train_School_IT'
p391
aS'Hos_Alter_Med_Doc_Tot_Stren_Num'
p392
aS'Pow_Sup_For_Al_User_Stat'
p393
aS'Gov_Man_Instit_Stat'
p394
aS'Non_Gov_Med_fac_Med_Shop_Num'
p395
aS'Dist_Wat_Boun_Mac'
p396
aS'Dist_Grav_kuc_Road'
p397
aS'Nut_Cen_IC_Stat'
p398
asS'k2i'
p399
(dp400
g141
I280
sS'Nearest Village/Town Name having Senior Secondary School'
p401
I321
sS'Major District Road (Status A(1)/NA(2))'
p402
I0
sg280
I276
sg291
I288
sg299
I296
sS'Maternity And Child Welfare Centre Doctors In Position (Numbers)'
p403
I1
sg203
I199
sS'Distance to Railway Station'
p404
I201
sS'Private Middle  School (Status A(1)/NA(2))'
p405
I2
sS'TB Clinic Para Medical Para Medical Staff In Position (Numbers)'
p406
I3
sS'Distance to School For Disabled'
p407
I199
sS'Nearest Town Name'
p408
I5
sS'Distance to Private Courier Facility'
p409
I6
sS'Private Engineering College (Status A(1)/NA(2))'
p410
I7
sg67
I63
sg296
I293
sg195
I191
sS'Reference Year'
p411
I8
sg312
I309
sS'Government School For Disabled (Numbers)'
p412
I9
sg338
I335
sS'Distance to Mobile Phone Coverage'
p413
I10
sS'Village Name'
p414
I11
sg138
I134
sg22
I18
sg222
I218
sg165
I161
sS'Uncovered  Well (Status A(1)/NA(2))'
p415
I13
sg340
I337
sS'Foothpath (Status A(1)/NA(2))'
p416
I14
sS'Private Management Institute (Numbers)'
p417
I15
sS'Village Pin Code (Status A(1)/NA(2))'
p418
I338
sS'Carts Drivens by Animals (Status A(1)/NA(2))'
p419
I16
sg185
I380
sg223
I219
sg287
I284
sS'Tractors (Status A(1)/NA(2))'
p420
I17
sS'Govt  Arts and Science Degree College (Numbers)'
p421
I18
sg241
I237
sg162
I158
sS'Tank/Pond/Lake Functioning All round the year (Status A(1)/NA(2))'
p422
I19
sS'Power Supply For Domestic Use Summer (April-Sept.) per day (in Hours)'
p423
I20
sS'Private Non Formal Training Centre (Status A(1)/NA(2))'
p424
I21
sg380
I377
sS'Distance to Cinema/Video Hall'
p425
I22
sg356
I353
sS'Total Households'
p426
I323
sS'Nearest Village/Town Name having Others'
p427
I23
sg255
I251
sg148
I144
sg125
I121
sg297
I294
sg128
I124
sS'CD Block Name'
p428
I25
sg284
I281
sS'Hospiltal Alternative Medicine Para Medical  Staff Total Strength (Numbers)'
p429
I26
sS'Govt  Middle School (Numbers)'
p430
I27
sg283
I279
sS'District Head Quarter  (Name)'
p431
I325
sS'Power Supply For All Users (Status A(1)/NA(2))'
p432
I391
sg363
I360
sS'Distance to Pre-Primary School'
p433
I29
sS'Handicrafts Commodities (Second)'
p434
I30
sg130
I126
sS'Distance to Private Engineering College'
p435
I326
sS'Primary  Health Centre Para Medical Staff In Position (Numbers)'
p436
I31
sS'Primary Health Centre (Numbers)'
p437
I32
sg56
I52
sg139
I135
sg371
I368
sS'Uncovered  Well Functioning All round the year (Status A(1)/NA(2))'
p438
I33
sg228
I224
sg155
I151
sS'Distance to Primary Health Centre'
p439
I34
sS'Non Government Medical facilities Medical Prctitioner with MBBS Degree (Numbers)'
p440
I35
sS'Power Supply For Domestic Use  (Status A(1)/NA(2))'
p441
I36
sS'Distance to State Highway'
p442
I37
sS'Public Library (Status A(1)/NA(2))'
p443
I38
sg375
I372
sg374
I371
sS'Public Bus Service (Status A(1)/NA(2))'
p444
I39
sS'Private Polytechnic (Status A(1)/NA(2))'
p445
I41
sg11
I7
sS'Private Secondary School (Status A(1)/NA(2))'
p446
I42
sg183
I179
sS'Sports Field (Status A(1)/NA(2))'
p447
I329
sS'River/Canal (Status A(1)/NA(2))'
p448
I328
sS'Wells/Tube Wells Area (in Hectares)'
p449
I44
sS'Post And Telegraph Office (Status A(1)/NA(2))'
p450
I45
sg277
I273
sS'Distance to Veterinary Hospital'
p451
I286
sg217
I213
sS'Distance to Sports Field'
p452
I46
sS'Mobile Health Clinic Doctors Total Strength (Numbers)'
p453
I47
sS'Nearest Arts and Science Degree College (Govt(1)/Private(2))'
p454
I48
sS'Other District Road (Status A(1)/NA(2))'
p455
I49
sS'Net Area Sown (in Hectares)'
p456
I50
sS'Nearest Village/Town Name having School For Disabled'
p457
I51
sg10
I6
sg282
I278
sg357
I354
sS'Navigable Waterways (River/Canal) (Status A(1)/NA(2))'
p458
I52
sS'Community Health Centre Doctors In Position (Numbers)'
p459
I136
sg77
I73
sg387
I385
sg372
I369
sg370
I367
sS'Private Engineering College (Numbers)'
p460
I55
sg205
I201
sS'Nearest Facility Distance (in Km)'
p461
I56
sg235
I231
sS'Nearest Statutory Town within the State/UT (Distance in km)'
p462
I57
sg271
I267
sg226
I222
sg121
I117
sg80
I76
sS'Govt Engineering College (Status A(1)/NA(2))'
p463
I58
sg295
I292
sg348
I345
sS'Private Primary School (Status A(1)/NA(2))'
p464
I59
sg259
I255
sg373
I370
sS'Distance to Birth and Death Registration Office'
p465
I60
sg53
I49
sg331
I328
sS'Hospital Allopathic (Numbers)'
p466
I61
sS'Distance to Cycle-pulled Rickshaws   (manual driven)'
p467
I73
sS'Nearest Village/Town Name having Private Engineering College'
p468
I62
sg354
I351
sS'Manufacturers Commodities (Third)'
p469
I63
sS'Culturable Waste Land Area (in Hectares)'
p470
I64
sS'Prim'
p471
I397
sS'Distance to Black Topped (pucca) Road'
p472
I66
sS'Nearest Medicine College (Govt(1)/Private(2))'
p473
I67
sg188
I184
sg351
I348
sS'Private Middle School (Numbers)'
p474
I68
sS'Distance to Nutritional Centres-ICDS'
p475
I69
sS'Distance to Commercial Bank'
p476
I70
sS'Dispensary Para Medical Staff In Position (Numbers)'
p477
I71
sS'Tap Water Untreated Functioning in Summer months (April-September) (Status A(1)/NA(2))'
p478
I336
sg327
I324
sS'Distance to Auto/Modified Autos'
p479
I72
sg91
I87
sg122
I118
sS'Distance to Mobile Health Clinic'
p480
I74
sg336
I333
sg268
I264
sg242
I238
sg14
I10
sS'Whether Drain water is discharged directly into water bodies or to sewar plant (For Water Bodies-1/Sewar Plants-2)'
p481
I75
sS'Black Topped (pucca) Road (Status A(1)/NA(2))'
p482
I76
sS'Distance to Cooperative Bank'
p483
I83
sS'Distance to Senior Secondary School'
p484
I340
sg234
I230
sS'Distance to Hospital Alternative Medicine'
p485
I78
sg99
I95
sg32
I28
sS'Gram Panchayat Code'
p486
I342
sg119
I115
sS'Statutory Town Outside the State/UT, if nearest one is not within the State/UT (Name)'
p487
I79
sS'Open Pucca Drainage Uncovered (Status A(1)/NA(2))'
p488
I219
sg168
I164
sg257
I253
sS'Maternity And Child Welfare Centre Para Medical Staff In Position (Numbers)'
p489
I81
sS'Area Irrigated by Source (in Hectares)'
p490
I82
sS'Nearest School For Disabled (Govt(1)/Private(2))'
p491
I77
sg107
I103
sS'Total Scheduled Tribes  Female Population of Village'
p492
I84
sg308
I305
sS'Gram Panchayat Name'
p493
I85
sg378
I375
sg359
I356
sS'Family Welfare Centre Doctors In Position (Numbers)'
p494
I86
sg180
I176
sS'Private Senior Secondary School (Status A(1)/NA(2))'
p495
I87
sg369
I366
sg88
I84
sS'Total Geographical Area (in Hectares)'
p496
I88
sg181
I177
sS'Distance to Polytechnic'
p497
I89
sS'Birth and Death Registration Office (Status A(1)/NA(2))'
p498
I90
sg260
I256
sg307
I304
sS'Hospital Allopathic Doctors Total Strength (Numbers)'
p499
I91
sg256
I252
sS'Sea/River/Ferry Service (Status A(1)/NA(2))'
p500
I92
sS'Govt Senior Secondary School (Status A(1)/NA(2))'
p501
I93
sg355
I352
sS'Community Health Centre Doctors Total Strength (Numbers)'
p502
I94
sS'Tap Water Untreated (Status A(1)/NA(2))'
p503
I95
sS'Post Office (Status A(1)/NA(2))'
p504
I96
sS'Commercial Bank (Status A(1)/NA(2))'
p505
I97
sS'National Highway (Status A(1)/NA(2))'
p506
I98
sg103
I99
sS'Family Welfare Centre (Numbers)'
p507
I99
sg278
I274
sg127
I123
sg132
I128
sS'Private Medicine  College (Status A(1)/NA(2))'
p508
I100
sS'Nearest Village/Town Name having Secondary School'
p509
I101
sg178
I174
sS'Distance to Hospital Allopathic'
p510
I102
sg367
I364
sS'Rural Production mart or Sanitary hardware outlet availability near the village (Status A(1)/NA(2))'
p511
I103
sS'Distance to Assembly Polling Station'
p512
I104
sS'Nearest Village/Town Name having Primary School'
p513
I105
sg7
I3
sg201
I197
sg52
I48
sS'Govt Vocational Training School/ITI (Numbers)'
p514
I106
sS'Hand Pump Functioning All round the year (Status A(1)/NA(2))'
p515
I107
sg153
I149
sS'Govt  Secondary School (Numbers)'
p516
I108
sg311
I308
sg244
I240
sg301
I298
sg175
I171
sg245
I241
sg78
I74
sg198
I194
sg134
I130
sg298
I295
sS'Distance to Nutritional Centres-Anganwadi Centre'
p517
I109
sS'Community Toilet Complex (including Bath) for General Public (Status A(1)/NA(2))'
p518
I110
sg66
I62
sg290
I287
sS'Govt Senior Secondary School (Numbers)'
p519
I111
sg113
I109
sS'Govt  Arts and Science Degree College (Status A(1)/NA(2))'
p520
I112
sS'Spring (Status A(1)/NA(2))'
p521
I113
sg58
I54
sS'Distance to Public Reading Room'
p522
I114
sS'Private Secondary  School (Numbers)'
p523
I115
sS'Tap Water-Treated Functioning All round the year (Status A(1)/NA(2))'
p524
I116
sS'Distance to Private Bus Service'
p525
I117
sS'Tank/Pond/Lake (Status A(1)/NA(2))'
p526
I118
sS'Dispensary Doctors Total Strength (Numbers)'
p527
I119
sg81
I77
sg361
I358
sS'Tap Water Untreated Functioning All round the year (Status A(1)/NA(2))'
p528
I120
sS'PIN Code'
p529
I121
sg393
I391
sg170
I166
sS'Family Welfare Centre Para Medical  Staff Total Strength (Numbers)'
p530
I226
sg101
I97
sS'Nearest Management Institute (Govt(1)/Private(2))'
p531
I152
sg191
I187
sg199
I195
sg305
I302
sg365
I362
sS'Distance to Family Welfare'
p532
I124
sg368
I365
sS'Agricultural Credit Societies (Status A(1)/NA(2))'
p533
I24
sg352
I349
sg46
I42
sS'District Name'
p534
I126
sS'Distance to Internet Cafes / Common Service Centre (CSC)'
p535
I127
sg316
I313
sS'Distance to Medicine College'
p536
I80
sg126
I122
sg4
I0
sg179
I175
sS'Distance to Carts Drivens by Animals'
p537
I129
sS'Tap Water-Treated (Status A(1)/NA(2))'
p538
I333
sg167
I163
sg35
I31
sg173
I169
sS'Veterinary Hospital Para Medical  Staff Total Strength (Numbers)'
p539
I130
sg63
I59
sS'Government Others (Numbers)'
p540
I131
sS'Total Scheduled Castes  Female Population of Village'
p541
I132
sS'Government School For Disabled (Status A(1)/NA(2))'
p542
I133
sS'Nearest Senior Secondary School (Govt(1)/Private(2))'
p543
I134
sS'River/Canal Functioning in Summer months (April-September) (Status A(1)/NA(2))'
p544
I135
sS'Taxi  (Status A(1)/NA(2))'
p545
I125
sS'CD Block Code'
p546
I137
sS'Distance to Community Health Centre'
p547
I138
sg93
I89
sS'Distance to Daily Newspaper Supply'
p548
I139
sg262
I258
sg232
I228
sS'Non Government Medical facilities Charitable (Numbers)'
p549
I140
sS'Power Supply For All Users Summer (April-Sept.) per day (in Hours)'
p550
I141
sg51
I47
sg289
I286
sg129
I125
sS'Government Others (Status A(1)/NA(2))'
p551
I142
sS'Private Polytechnic (Numbers)'
p552
I143
sS'Distance to Telephone (landlines)'
p553
I144
sS'Veterinary Hospital (Numbers)'
p554
I145
sS'Nearest Statutory Town within the State/UT (Name)'
p555
I353
sS'Distance to Dispensary'
p556
I146
sS'Non Government Medical facilities Others (Numbers)'
p557
I147
sS'Primary_School'
p558
I397
sg100
I96
sS'Nearest Polytechnic (Govt(1)/Private(2))'
p559
I148
sg21
I17
sS'Nearest Statutory Town  (Name)'
p560
I149
sg249
I245
sg314
I311
sg83
I79
sS'Distance to Major District Road'
p561
I331
sS'Nearest Village/Town Name having Middle School'
p562
I150
sg82
I78
sg109
I105
sS'Govt Medicine College (Status A(1)/NA(2))'
p563
I232
sg137
I133
sg377
I374
sS'Mobile Health Clinic (Numbers)'
p564
I123
sS'Village Code'
p565
I153
sS'Others Functioning All round the year (Status A(1)/NA(2))'
p566
I154
sg219
I215
sS'Non Government Medical facilities Out Patient (Numbers)'
p567
I155
sS'Power Supply For All Users Winter (Oct.-March) per day (in Hours)'
p568
I156
sS'Handicrafts  Commodities (Third)'
p569
I157
sg163
I159
sg218
I214
sS'Distance to Community Centre with/without TV'
p570
I158
sg353
I350
sg293
I290
sg334
I331
sg214
I210
sS'Primary Heallth Sub Centre Para Medical  Staff Total Strength (Numbers)'
p571
I54
sS'Sub Post Office (Status A(1)/NA(2))'
p572
I159
sg322
I319
sg303
I300
sS'Power Supply For Agriculture Use Winter (Oct.-March)per day (in Hours)'
p573
I160
sg392
I390
sg171
I167
sg339
I336
sg174
I170
sg385
I383
sg184
I180
sS'All Weather Road (Status A(1)/NA(2))'
p574
I162
sg159
I155
sS'TB Clinic (Numbers)'
p575
I163
sS'Nearest Private Engineering College (Govt(1)/Private(2))'
p576
I164
sS'Dispensary (Numbers)'
p577
I165
sS'Dispensary Para Medical  Staff Total Strength (Numbers)'
p578
I166
sS'Nearest Village/Town Name having Arts and Science Degree College'
p579
I167
sg382
I379
sg25
I21
sg50
I46
sS'Hospiltal Alternative Medicine Para Medical Staff In Position (Numbers)'
p580
I168
sg106
I102
sg236
I232
sS'Others Functioning in Summer months (April-September) (Status A(1)/NA(2))'
p581
I367
sg347
I344
sS'Agricultural Commodities (First)'
p582
I169
sS'Distance to Vans'
p583
I170
sS'Private Others (Status A(1)/NA(2))'
p584
I171
sg74
I70
sS'River/Canal Functioning All round the year (Status A(1)/NA(2))'
p585
I172
sS'Veterinary Hospital Para Medical Staff In Position (Numbers)'
p586
I173
sS'Tanks/Lakes Area (in Hectares)'
p587
I174
sg169
I165
sg209
I205
sS'Distance to Public Bus Service'
p588
I237
sg300
I297
sS'Sub District Code'
p589
I175
sg321
I318
sg16
I12
sg320
I317
sg26
I22
sg116
I112
sS'Agricultural Commodities (Third)'
p590
I176
sS'Distance to Public Distribution System (PDS) Shop'
p591
I177
sS'Community Health Centre Para Medical Staff In Position (Numbers)'
p592
I178
sS'Govt Pre-Primary School (Nursery/LKG/UKG) (Status A(1)/NA(2))'
p593
I297
sS'Hand Pump (Status A(1)/NA(2))'
p594
I180
sg263
I259
sg108
I104
sS'Distance to'
p595
I181
sS'Nutritional Centres-Anganwadi Centre (Status A(1)/NA(2))'
p596
I182
sg366
I363
sS'Distance to All Weather Road'
p597
I238
sS'Nearest Statutory Town (Distance in km)'
p598
I183
sS'Power Supply For Agriculture Use (Status A(1)/NA(2))'
p599
I184
sg306
I303
sg49
I45
sS'Canals Area (in Hectares)'
p600
I185
sS'No  Drainage (Status A(1)/NA(2))'
p601
I186
sS'Public Reading Room (Status A(1)/NA(2))'
p602
I187
sS'Tube Wells/Borehole Functioning in Summer months (April-September) (Status A(1)/NA(2))'
p603
I188
sg210
I206
sS'Forest Area (in Hectares)'
p604
I189
sg272
I268
sg120
I116
sg212
I208
sS'Barren & Un-cultivable Land Area (in Hectares)'
p605
I191
sg72
I68
sS'Maternity And Child Welfare Centre Doctors Total Strength (Numbers)'
p606
I192
sg251
I247
sg292
I289
sg317
I314
sg193
I189
sg388
I386
sS'Land Under Miscellaneous Tree Crops etc. Area (in Hectares)'
p607
I193
sg304
I301
sg102
I98
sS'Tube Wells/Borehole (Status A(1)/NA(2))'
p608
I194
sg160
I156
sS'Community Toilet Complex (excluding Bath) for General Public (Status A(1)/NA(2))'
p609
I196
sS'Govt Vocational Training School/ITI (Status A(1)/NA(2))'
p610
I197
sS'Private Bus Service (Status A(1)/NA(2))'
p611
I198
sS'Hospiltal Alternative Medicine (Numbers)'
p612
I4
sS'Nearest Secondary School (Govt(1)/Private(2))'
p613
I200
sg189
I185
sS'Primary Heallth Sub Centre Doctors Total Strength (Numbers)'
p614
I202
sS'Sub District Head Quarter (Distance in km)'
p615
I203
sg390
I388
sS'Community waste disposal system after house to house collection (Status A(1)/NA(2))'
p616
I204
sS'Non Government Medical facilities In And Out Patient (Numbers)'
p617
I205
sS'Open Drainage (Status A(1)/NA(2))'
p618
I206
sS'Power Supply For Domestic Use Winter (Oct.-March) per day (in Hours)'
p619
I207
sg71
I67
sS'ASHA (Status A(1)/NA(2))'
p620
I208
sS'Statutory Town Outside the State/UT distance, if nearest one is not within the State/UT (Distance in km)'
p621
I209
sS'Distance to Weekly Haat'
p622
I210
sg172
I168
sS'Public Call Office /Mobile (PCO) (Status A(1)/NA(2))'
p623
I211
sS'Private Courier Facility (Status A(1)/NA(2))'
p624
I212
sS'Cooperative Bank (Status A(1)/NA(2))'
p625
I213
sS'Tap Water-Treated Functioning in Summer months (April-September) (Status A(1)/NA(2))'
p626
I214
sS'Covered Well (Status A(1)/NA(2))'
p627
I215
sg264
I260
sS'Govt Primary School (Numbers)'
p628
I216
sS'Distance to Cycle-pulled Rickshaws (machine driven)'
p629
I217
sS'Govt Secondary School (Status A(1)/NA(2))'
p630
I218
sg20
I16
sS'Mobile Phone Coverage (Status A(1)/NA(2))'
p631
I220
sS'Spring Functioning All round the year (Status A(1)/NA(2))'
p632
I221
sg258
I254
sg391
I389
sg87
I83
sS'Cinema/Video Hall (Status A(1)/NA(2))'
p633
I222
sS'Total Scheduled Tribes  Male Population of Village'
p634
I223
sg208
I204
sS'Nearest Vocational Training School/ITI (Govt(1)/Private(2))'
p635
I224
sg23
I19
sS'Distance to Post Office'
p636
I225
sS'Community Health Centre (Numbers)'
p637
I122
sS'Govt Medicine  College (Numbers)'
p638
I227
sS'Auto/Modified Autos (Status A(1)/NA(2))'
p639
I228
sS'Total Unirrigated Land Area (in Hectares)'
p640
I229
sg37
I33
sg341
I338
sS'Rural Production Centres or Sanitary hardware outlet availability near the village (Status A(1)/NA(2))'
p641
I230
sg246
I242
sg345
I342
sS'Total Population of Village'
p642
I231
sS'Govt  Pre - Primary School (Nursery/LKG/UKG) (Numbers)'
p643
I151
sg73
I69
sS'Power Supply For Commercial Use (Status A(1)/NA(2))'
p644
I233
sS'Nearest Village/Town Name having Pre - Primary School'
p645
I234
sS'Distance to Middle School'
p646
I235
sg238
I234
sS'Distance to Sea/River/Ferry Service'
p647
I236
sg85
I81
sg28
I24
sg267
I263
sg142
I138
sg152
I148
sg76
I72
sg86
I82
sS'Distance to Maternity And Child Welfare Centre'
p648
I239
sS'Sub District Head Quarter (Name)'
p649
I240
sS'Waterfall Area (in Hectares)'
p650
I241
sg211
I207
sS'Telephone (landlines) (Status A(1)/NA(2))'
p651
I242
sg146
I142
sg194
I190
sg182
I178
sg200
I196
sS'Nearest Others (Govt(1)/Private(2))'
p652
I245
sg140
I136
sg192
I188
sS'Distance to Secondary School'
p653
I246
sg75
I71
sg97
I93
sg34
I30
sg38
I34
sS'Non Government Medical facilities Medical Prctitioner with other Degree (Numbers)'
p654
I247
sg164
I160
sg13
I9
sS'Primary  Health Centre Para Medical  Staff Total Strength (Numbers)'
p655
I248
sS'Sub District Name'
p656
I249
sg275
I271
sg57
I53
sS'Distance to Navigable Waterways (River/Canal)'
p657
I374
sS'Hand Pump Functioning in Summer months (April-September) (Status A(1)/NA(2))'
p658
I250
sS'Maternity And Child Welfare Centre Para Medical  Staff Total Strength (Numbers)'
p659
I251
sS'Other Source (specify) Area (in Hectares)'
p660
I252
sS'TB Clinic Para Medical Para Medical  Staff Total Strength (Numbers)'
p661
I253
sg9
I5
sg323
I320
sS'Veterinary Hospital Doctors Total Strength (Numbers)'
p662
I254
sg250
I246
sg281
I277
sS'Distance to Other District Road'
p663
I255
sg166
I162
sS'Distance to Agricultural Marketing Society'
p664
I256
sg330
I327
sg48
I44
sg207
I203
sg136
I132
sg65
I61
sS'Sports Club/Recreation Centre (Status A(1)/NA(2))'
p665
I313
sg69
I65
sg383
I381
sg394
I392
sS'Private Others (Numbers)'
p666
I260
sS'Community Bio-gas or recycle of waste for production use (Status A(1)/NA(2))'
p667
I261
sS'Private Vocational Training School/ITI (Status A(1)/NA(2))'
p668
I262
sS'Private Vocational Training School/ITI (Numbers)'
p669
I369
sg233
I229
sg398
I396
sg230
I226
sS'Mobile Health Clinic Doctors In Position (Numbers)'
p670
I264
sg220
I216
sS'Assembly Polling Station (Status A(1)/NA(2))'
p671
I265
sg24
I20
sg42
I38
sS'Distance to Taxi'
p672
I266
sS'Government Non Formal Training Centre (Numbers)'
p673
I267
sg33
I29
sg196
I192
sS'Family Welfare Centre Doctors Total Strength (Numbers)'
p674
I270
sg237
I233
sS'Private  Primary School (Numbers)'
p675
I272
sg104
I100
sg43
I39
sg229
I225
sg227
I223
sg253
I249
sg332
I329
sS'Govt Polytechnic (Status A(1)/NA(2))'
p676
I273
sg288
I285
sg376
I373
sg96
I92
sS'Distance to Pin Code'
p677
I380
sS'Non Government Medical facilities Traditional Practitioner and Faith  Healer (Numbers)'
p678
I275
sg213
I209
sg156
I152
sg176
I172
sS'Daily Newspaper Supply (Status A(1)/NA(2))'
p679
I276
sS'Mobile Health Clinic Para Medical Staff In Position(Numbers)'
p680
I277
sg360
I357
sg61
I57
sS'Railway Station (Status A(1)/NA(2))'
p681
I278
sS'State Name'
p682
I339
sg29
I25
sS'Nearest Pre - Primary School (Nursery/LKG/UKG) Status (Govt(1)/Private(2))'
p683
I279
sg157
I153
sg343
I340
sS'District Code'
p684
I280
sS'Nearest Village/Town Name having Polytechnic'
p685
I281
sS'Distance to Self - Help Group (SHG)'
p686
I282
sS'Area under Non-Agricultural Uses (in Hectares)'
p687
I283
sS'Permanent Pastures and Other Grazing Land Area (in Hectares)'
p688
I381
sS'Primary Health Centre  Doctors Total Strength (Numbers)'
p689
I285
sg17
I13
sg12
I8
sS'Primary Heallth Sub Centre Doctors In Position (Numbers)'
p690
I287
sS'District Head Quarter  (Distance in km)'
p691
I288
sg216
I212
sS'Distance to Public Library'
p692
I289
sg92
I88
sg95
I91
sg114
I110
sS'Govt Middle  School (Status A(1)/NA(2))'
p693
I291
sg269
I265
sg98
I94
sg41
I37
sg177
I173
sg150
I146
sg270
I266
sg346
I343
sg396
I394
sg45
I41
sg335
I332
sS'Hospital Allopathic Para Medical  Staff Total Strength (Numbers)'
p694
I292
sg254
I250
sS'Distance to Post And Telegraph Office'
p695
I293
sS'Distance to Vocational Training School/ITI'
p696
I294
sg68
I64
sg154
I150
sS'Open Pucca Drainage Covered with Tiles Slabs (Status A(1)/NA(2))'
p697
I295
sS'Open Kuccha Drainage (Status A(1)/NA(2))'
p698
I296
sg294
I291
sS'Total Female Population of Village'
p699
I179
sS'Distance to Non Formal Training Centre'
p700
I358
sS'Is the Area Covered under Total Sanitation Campaign (TSC)? (Status A(1)/NA(2))'
p701
I298
sg47
I43
sg313
I310
sg8
I4
sg349
I346
sg143
I139
sg215
I211
sS'Nearest Primary School (Govt(1)/Private(2))'
p702
I257
sg31
I27
sg187
I183
sg381
I378
sS'Veterinary Hospital Doctors In Position (Numbers)'
p703
I300
sg147
I143
sS'Mandis/Regular Market (Status A(1)/NA(2))'
p704
I301
sS'Uncovered  Well Functioning in Summer months (April-September) (Status A(1)/NA(2))'
p705
I302
sS'Power Supply For Commercial Use Summer (April-Sept.) per day (in Hours)'
p706
I303
sg55
I51
sS'Govt Management Institute (Numbers)'
p707
I383
sg248
I244
sS'Distance to Sub Post Office'
p708
I244
sg344
I341
sg202
I198
sg15
I11
sS'Distance to Public Call Office /Mobile (PCO)'
p709
I305
sS'TB Clinic Doctors Total Strength (Numbers)'
p710
I306
sg110
I106
sS'Dispensary Doctors In Position (Numbers)'
p711
I307
sS'Private School For Disabled ( Status A(1)/NA(2))'
p712
I308
sS'Covered Well Functioning in Summer months (April-September) (Status A(1)/NA(2))'
p713
I309
sg70
I66
sg265
I261
sg342
I339
sg384
I382
sS'Covered Well Functioning All round the year (Status A(1)/NA(2))'
p714
I314
sg54
I50
sg62
I58
sS'Power Supply For Agriculture Use Summer (April-Sept.) per day (in Hours)'
p715
I311
sS'Private Non Formal Training Centre (Numbers)'
p716
I312
sg197
I193
sS'Distance to Others'
p717
I310
sg5
I1
sg27
I23
sS'Power Supply For Commercial Use Winter (Oct.-March) per day (in Hours)'
p718
I315
sg135
I131
sg79
I75
sg44
I40
sg131
I127
sS'Non Government Medical facilities Medical Practitioner with no  Degree (Numbers)'
p719
I317
sg145
I141
sg324
I321
sg328
I325
sS'Govt Engineering College (Numbers)'
p720
I318
sS'Nutritional Centres-Others (Status A(1)/NA(2))'
p721
I343
sS'Distance to Management Institute'
p722
I319
sS'Total Scheduled Castes  Male Population of Village'
p723
I320
sg252
I248
sg310
I307
sg224
I220
sg144
I140
sg225
I221
sS'Handicrafts Commodities (First)'
p724
I316
sS'Mobile Health Clinic Para Medical  Staff Total Strength (Numbers)'
p725
I128
sS'Nearest Village/Town Name having Non Formal Training Centre'
p726
I322
sg286
I283
sg84
I80
sS'State Code'
p727
I324
sS'Tank/Pond/Lake Functioning in Summer months (April-September) (Status A(1)/NA(2))'
p728
I304
sS'Manufacturers Commodities (First)'
p729
I28
sg149
I145
sS'Nearest Village/Town Name having Management Institute'
p730
I327
sg117
I113
sS'Manufacturers Commodities (Second)'
p731
I65
sg59
I55
sS'Total Scheduled Castes Population of Village'
p732
I43
sS'Hospital Allopathic Doctors In Position (Numbers)'
p733
I263
sg94
I90
sg379
I376
sS'Distance to TB Clinic'
p734
I330
sS'TB Clinic Doctors In Position (Numbers)'
p735
I53
sg358
I355
sg231
I227
sS'Distance to Sports Club/Recreation Centre'
p736
I332
sg279
I275
sg89
I85
sS'Fallows Land other than Current Fallows Area (in Hectares)'
p737
I334
sS'Government Non Formal Training Centre (Status A(1)/NA(2))'
p738
I335
sg60
I56
sS'Distance to Tractors'
p739
I337
sS'Private Pre - Primary School (Nursery/LKG/UKG) (Numbers)'
p740
I190
sg36
I32
sg90
I86
sS'Cycle-pulled Rickshaws   (manual driven) (Status A(1)/NA(2))'
p741
I341
sg6
I2
sg30
I26
sg239
I235
sg64
I60
sS'State Highway (Status A(1)/NA(2))'
p742
I344
sg273
I269
sg266
I262
sg186
I182
sS'Nearest Town Distance from Village (in Km.)'
p743
I345
sg18
I14
sg123
I119
sg276
I272
sS'Cycle-pulled Rickshaws (machine driven) (Status A(1)/NA(2))'
p744
I346
sg40
I36
sS'Spring Functioning in Summer months (April-September) (Status A(1)/NA(2))'
p745
I347
sg362
I359
sS'Hospiltal Alternative Medicine Doctors In Position (Numbers)'
p746
I348
sS'Distance to National Highway'
p747
I349
sS'Distance to Gravel (kuchha) Roads'
p748
I395
sS'Community Health Centre Para Medical  Staff Total Strength (Numbers)'
p749
I350
sS'Distance to ASHA'
p750
I269
sg364
I361
sS'Others (Status A(1)/NA(2))'
p751
I351
sS'Total Male Population of Village'
p752
I352
sg221
I217
sg318
I315
sg206
I202
sS'Distance to Primary Health Sub Centre'
p753
I354
sS'Private School For Disabled (Numbers)'
p754
I355
sg112
I108
sS'Private Senior Secondary  School (Numbers)'
p755
I356
sg204
I200
sS'Agricultural Commodities (Second)'
p756
I357
sS'Distance to Nutritional Centres-Others'
p757
I161
sg315
I312
sg118
I114
sS'Gravel (kuchha) Roads (Status A(1)/NA(2))'
p758
I259
sS'Vans (Status A(1)/NA(2))'
p759
I359
sS'Nearest Village/Town Name having Medicine College'
p760
I360
sg325
I322
sS'Tube Wells/Borehole Functioning All round the year (Status A(1)/NA(2))'
p761
I361
sS'Water Bounded Macadam (Status A(1)/NA(2))'
p762
I243
sS'Primary Health  Centre Doctors In Position (Numbers)'
p763
I362
sS'Private Pre - Primary School (Nursery/LKG/UKG) (Status A(1)/NA(2))'
p764
I363
sS'Distance to Primary School'
p765
I364
sS'Primary Heallth Sub Centre (Numbers)'
p766
I268
sS'Private Management Institute (Status A(1)/NA(2))'
p767
I365
sS'Distance to Water Bounded Macadam'
p768
I394
sg243
I239
sg247
I243
sg261
I257
sS'Primary Heallth Sub Centre Para Medical Staff In Position (Numbers)'
p769
I368
sg115
I111
sS'Weekly Haat (Status A(1)/NA(2))'
p770
I12
sS'Distance to Mandis/Regular Market'
p771
I370
sg158
I154
sS'Private  Arts and Science Degree College (Status A(1)/NA(2))'
p772
I371
sg319
I316
sg326
I323
sS'Internet Cafes / Common Service Centre (CSC) (Status A(1)/NA(2))'
p773
I271
sS'Closed Drainage (Status A(1)/NA(2))'
p774
I372
sg329
I326
sg19
I15
sS'Total Scheduled Tribes Population of Village'
p775
I373
sg274
I270
sS'Govt Polytechnic (Numbers)'
p776
I375
sS'Maternity And Child Welfare Centre (Numbers)'
p777
I376
sg397
I395
sS'Distance to Foothpath'
p778
I377
sS'Non Government Medical facilities Medicine Shop (Numbers)'
p779
I393
sS'Hospital Allopathic Para Medical Staff In Position (Numbers)'
p780
I378
sS'Self - Help Group (SHG) (Status A(1)/NA(2))'
p781
I379
sS'Nearest Middle School (Govt(1)/Private(2))'
p782
I299
sS'Community Centre with/without TV (Status A(1)/NA(2))'
p783
I274
sg151
I147
sg161
I157
sS'Family Welfare Centre Para Medical Staff In Position (Numbers)'
p784
I284
sS'Public Distribution System (PDS) Shop (Status A(1)/NA(2))'
p785
I382
sS'Nearest Non Formal Training Centre (Govt(1)/Private(2))'
p786
I290
sS'Distance to Arts and Science Degree College'
p787
I384
sg190
I186
sS'Private  Arts and Science Degree College (Numbers)'
p788
I386
sg350
I347
sS'Private Medicine College (Numbers)'
p789
I387
sg111
I107
sg105
I101
sS'No System (Garbage on road/street) (Status A(1)/NA(2))'
p790
I388
sg240
I236
sg39
I35
sS'Nearest Village/Town Name having Vocational Training School/ITI'
p791
I389
sS'Hospiltal Alternative Medicine Doctors Total Strength (Numbers)'
p792
I390
sS'ATM (Status A(1)/NA(2))'
p793
I385
sS'Current Fallows Area (in Hectares)'
p794
I40
sg133
I129
sg333
I330
sg309
I306
sg302
I299
sS'Govt Primary School (Status A(1)/NA(2))'
p795
I195
sS'Govt Management Institute (Status A(1)/NA(2))'
p796
I392
sg386
I384
sg389
I387
sg285
I282
sg395
I393
sS'Agricultural Marketing Society (Status A(1)/NA(2))'
p797
I258
sg124
I120
sS'Distance to Agricultural Credit Societies'
p798
I366
sg337
I334
sS'Nutritional Centres-ICDS (Status A(1)/NA(2))'
p799
I396
ssS'new_fields'
p800
(lp801
g558
asS'tree'
p802
(lp803
(lp804
a(lp805
a(lp806
a(lp807
a(lp808
a(lp809
a(lp810
a(lp811
a(lp812
a(lp813
a(lp814
a(lp815
a(lp816
a(lp817
a(lp818
a(lp819
a(lp820
a(lp821
a(lp822
a(lp823
a(lp824
a(lp825
a(lp826
a(lp827
a(lp828
a(lp829
a(lp830
a(lp831
a(lp832
a(lp833
a(lp834
a(lp835
a(lp836
a(lp837
a(lp838
a(lp839
a(lp840
a(lp841
a(lp842
a(lp843
a(lp844
a(lp845
a(lp846
a(lp847
(lp848
g323
aS'Gender'
p849
aa(lp850
g136
ag849
aaa(lp851
a(lp852
a(lp853
a(lp854
a(lp855
a(lp856
a(lp857
a(lp858
a(lp859
a(lp860
a(lp861
a(lp862
a(lp863
a(lp864
a(lp865
a(lp866
a(lp867
a(lp868
a(lp869
a(lp870
a(lp871
a(lp872
a(lp873
a(lp874
a(lp875
a(lp876
a(lp877
a(lp878
a(lp879
a(lp880
a(lp881
a(lp882
a(lp883
a(lp884
a(lp885
a(lp886
a(lp887
a(lp888
a(lp889
a(lp890
a(lp891
a(lp892
a(lp893
a(lp894
a(lp895
a(lp896
a(lp897
a(lp898
a(lp899
a(lp900
a(lp901
a(lp902
a(lp903
a(lp904
a(lp905
a(lp906
a(lp907
a(lp908
a(lp909
a(lp910
a(lp911
a(lp912
a(lp913
a(lp914
a(lp915
a(lp916
a(lp917
a(lp918
a(lp919
a(lp920
a(lp921
a(lp922
a(lp923
a(lp924
a(lp925
a(lp926
a(lp927
a(lp928
a(lp929
a(lp930
a(lp931
a(lp932
a(lp933
a(lp934
a(lp935
a(lp936
a(lp937
a(lp938
a(lp939
a(lp940
a(lp941
a(lp942
a(lp943
a(lp944
a(lp945
a(lp946
a(lp947
a(lp948
a(lp949
a(lp950
a(lp951
a(lp952
a(lp953
a(lp954
a(lp955
a(lp956
a(lp957
a(lp958
a(lp959
a(lp960
a(lp961
a(lp962
a(lp963
a(lp964
a(lp965
a(lp966
a(lp967
a(lp968
a(lp969
a(lp970
a(lp971
a(lp972
a(lp973
a(lp974
a(lp975
a(lp976
a(lp977
a(lp978
a(lp979
a(lp980
a(lp981
a(lp982
a(lp983
a(lp984
a(lp985
a(lp986
a(lp987
a(lp988
a(lp989
a(lp990
a(lp991
a(lp992
a(lp993
a(lp994
a(lp995
a(lp996
a(lp997
a(lp998
a(lp999
a(lp1000
a(lp1001
a(lp1002
a(lp1003
a(lp1004
a(lp1005
a(lp1006
a(lp1007
a(lp1008
a(lp1009
a(lp1010
a(lp1011
a(lp1012
a(lp1013
a(lp1014
a(lp1015
a(lp1016
a(lp1017
a(lp1018
a(lp1019
a(lp1020
a(lp1021
a(lp1022
a(lp1023
a(lp1024
a(lp1025
a(lp1026
a(lp1027
a(lp1028
a(lp1029
a(lp1030
a(lp1031
a(lp1032
a(lp1033
a(lp1034
a(lp1035
a(lp1036
a(lp1037
a(lp1038
(lp1039
g355
ag849
aa(lp1040
g183
ag849
aa(lp1041
g47
aS'Caste'
p1042
aa(lp1043
g376
ag1042
aaa(lp1044
a(lp1045
a(lp1046
a(lp1047
a(lp1048
a(lp1049
a(lp1050
a(lp1051
a(lp1052
a(lp1053
a(lp1054
a(lp1055
a(lp1056
a(lp1057
a(lp1058
a(lp1059
a(lp1060
a(lp1061
a(lp1062
a(lp1063
a(lp1064
a(lp1065
a(lp1066
a(lp1067
a(lp1068
a(lp1069
a(lp1070
a(lp1071
a(lp1072
a(lp1073
a(lp1074
a(lp1075
a(lp1076
a(lp1077
a(lp1078
a(lp1079
a(lp1080
a(lp1081
a(lp1082
a(lp1083
a(lp1084
a(lp1085
a(lp1086
a(lp1087
a(lp1088
a(lp1089
a(lp1090
a(lp1091
a(lp1092
a(lp1093
a(lp1094
a(lp1095
a(lp1096
a(lp1097
a(lp1098
a(lp1099
a(lp1100
a(lp1101
a(lp1102
a(lp1103
a(lp1104
a(lp1105
a(lp1106
a(lp1107
a(lp1108
a(lp1109
a(lp1110
a(lp1111
a(lp1112
a(lp1113
a(lp1114
a(lp1115
a(lp1116
a(lp1117
a(lp1118
a(lp1119
a(lp1120
a(lp1121
a(lp1122
a(lp1123
a(lp1124
a(lp1125
a(lp1126
a(lp1127
a(lp1128
a(lp1129
a(lp1130
a(lp1131
a(lp1132
a(lp1133
a(lp1134
a(lp1135
a(lp1136
a(lp1137
a(lp1138
a(lp1139
a(lp1140
a(lp1141
a(lp1142
a(lp1143
a(lp1144
a(lp1145
a(lp1146
a(lp1147
a(lp1148
a(lp1149
a(lp1150
a(lp1151
a(lp1152
a(lp1153
a(lp1154
a(lp1155
a(lp1156
a(lp1157
a(lp1158
a(lp1159
a(lp1160
a(lp1161
a(lp1162
a(lp1163
a(lp1164
a(lp1165
a(lp1166
a(lp1167
a(lp1168
a(lp1169
a(lp1170
a(lp1171
a(lp1172
a(lp1173
a(lp1174
a(lp1175
a(lp1176
a(lp1177
a(lp1178
a(lp1179
a(lp1180
a(lp1181
a(lp1182
a(lp1183
a(lp1184
a(lp1185
(lp1186
g227
ag849
aa(lp1187
g88
ag849
aaa(lp1188
a(lp1189
a(lp1190
a(lp1191
a(lp1192
a(lp1193
a(lp1194
a(lp1195
a(lp1196
a(lp1197
a(lp1198
a(lp1199
a(lp1200
a(lp1201
a(lp1202
a(lp1203
a(lp1204
a(lp1205
a(lp1206
a(lp1207
a(lp1208
a(lp1209
a(lp1210
a(lp1211
(lp1212
g276
aS'subclass'
p1213
aa(lp1214
g220
ag1213
aa(lp1215
g367
ag1213
aa(lp1216
g261
ag1213
aaasb.